Archive member included       because of file (symbol)

/export/home2/working/netbsd/sys/arch/sparc64/stand/ofwboot/lib/sa/libsa.a(gets.o)
                              boot.o (gets)
/export/home2/working/netbsd/sys/arch/sparc64/stand/ofwboot/lib/sa/libsa.a(disklabel.o)
                              ofdev.o (getdisklabel)
/export/home2/working/netbsd/sys/arch/sparc64/stand/ofwboot/lib/sa/libsa.a(dkcksum.o)
                              ofdev.o (dkcksum)
/export/home2/working/netbsd/sys/arch/sparc64/stand/ofwboot/lib/sa/libsa.a(ufs.o)
                              ofdev.o (ufs_close)
/export/home2/working/netbsd/sys/arch/sparc64/stand/ofwboot/lib/sa/libsa.a(memcpy.o)
                              ofdev.o (memcpy)
/export/home2/working/netbsd/sys/arch/sparc64/stand/ofwboot/lib/sa/libsa.a(strerror.o)
                              boot.o (strerror)
/export/home2/working/netbsd/sys/arch/sparc64/stand/ofwboot/lib/sa/libsa.a(cread.o)
                              boot.o (lseek)
/export/home2/working/netbsd/sys/arch/sparc64/stand/ofwboot/lib/sa/libsa.a(bcopy.o)
                              boot.o (bcopy)
/export/home2/working/netbsd/sys/arch/sparc64/stand/ofwboot/lib/sa/libsa.a(exit.o)
                              boot.o (panic)
/export/home2/working/netbsd/sys/arch/sparc64/stand/ofwboot/lib/sa/libsa.a(closeall.o)
                              /export/home2/working/netbsd/sys/arch/sparc64/stand/ofwboot/lib/sa/libsa.a(exit.o) (closeall)
/export/home2/working/netbsd/sys/arch/sparc64/stand/ofwboot/lib/sa/libsa.a(close.o)
                              /export/home2/working/netbsd/sys/arch/sparc64/stand/ofwboot/lib/sa/libsa.a(cread.o) (oclose)
/export/home2/working/netbsd/sys/arch/sparc64/stand/ofwboot/lib/sa/libsa.a(lseek.o)
                              /export/home2/working/netbsd/sys/arch/sparc64/stand/ofwboot/lib/sa/libsa.a(cread.o) (olseek)
/export/home2/working/netbsd/sys/arch/sparc64/stand/ofwboot/lib/sa/libsa.a(read.o)
                              /export/home2/working/netbsd/sys/arch/sparc64/stand/ofwboot/lib/sa/libsa.a(cread.o) (oread)
/export/home2/working/netbsd/sys/arch/sparc64/stand/ofwboot/lib/sa/libsa.a(printf.o)
                              Locore.o (printf)
/export/home2/working/netbsd/sys/arch/sparc64/stand/ofwboot/lib/sa/libsa.a(open.o)
                              /export/home2/working/netbsd/sys/arch/sparc64/stand/ofwboot/lib/sa/libsa.a(cread.o) (oopen)
/export/home2/working/netbsd/sys/arch/sparc64/stand/ofwboot/lib/sa/libsa.a(dev.o)
                              ofdev.o (nodev)
/export/home2/working/netbsd/sys/arch/sparc64/stand/ofwboot/lib/z/libz.a(crc32.o)
                              /export/home2/working/netbsd/sys/arch/sparc64/stand/ofwboot/lib/sa/libsa.a(cread.o) (crc32)
/export/home2/working/netbsd/sys/arch/sparc64/stand/ofwboot/lib/z/libz.a(inflate.o)
                              /export/home2/working/netbsd/sys/arch/sparc64/stand/ofwboot/lib/sa/libsa.a(cread.o) (inflate)
/export/home2/working/netbsd/sys/arch/sparc64/stand/ofwboot/lib/z/libz.a(adler32.o)
                              /export/home2/working/netbsd/sys/arch/sparc64/stand/ofwboot/lib/z/libz.a(inflate.o) (adler32)
/export/home2/working/netbsd/sys/arch/sparc64/stand/ofwboot/lib/z/libz.a(infblock.o)
                              /export/home2/working/netbsd/sys/arch/sparc64/stand/ofwboot/lib/z/libz.a(inflate.o) (inflate_blocks_free)
/export/home2/working/netbsd/sys/arch/sparc64/stand/ofwboot/lib/z/libz.a(infcodes.o)
                              /export/home2/working/netbsd/sys/arch/sparc64/stand/ofwboot/lib/z/libz.a(infblock.o) (inflate_codes_new)
/export/home2/working/netbsd/sys/arch/sparc64/stand/ofwboot/lib/z/libz.a(inffast.o)
                              /export/home2/working/netbsd/sys/arch/sparc64/stand/ofwboot/lib/z/libz.a(infcodes.o) (inflate_fast)
/export/home2/working/netbsd/sys/arch/sparc64/stand/ofwboot/lib/z/libz.a(inftrees.o)
                              /export/home2/working/netbsd/sys/arch/sparc64/stand/ofwboot/lib/z/libz.a(infblock.o) (inflate_trees_free)
/export/home2/working/netbsd/sys/arch/sparc64/stand/ofwboot/lib/z/libz.a(infutil.o)
                              /export/home2/working/netbsd/sys/arch/sparc64/stand/ofwboot/lib/z/libz.a(infblock.o) (inflate_flush)
/export/home2/working/netbsd/sys/arch/sparc64/stand/ofwboot/lib/kern/libkern.a(ashrdi3.o)
                              /export/home2/working/netbsd/sys/arch/sparc64/stand/ofwboot/lib/sa/libsa.a(ufs.o) (__ashrdi3)
/export/home2/working/netbsd/sys/arch/sparc64/stand/ofwboot/lib/kern/libkern.a(muldi3.o)
                              ofdev.o (__muldi3)

Allocating common symbols
Common symbol       size              file

errno               0x4               /export/home2/working/netbsd/sys/arch/sparc64/stand/ofwboot/lib/sa/libsa.a(dev.o)
boothowto           0x4               boot.o
bootdev             0x80              boot.o
debug               0x4               boot.o
bootfile            0x80              boot.o
nfsys               0x4               ofdev.o
files               0x80              /export/home2/working/netbsd/sys/arch/sparc64/stand/ofwboot/lib/sa/libsa.a(open.o)
file_system         0x48              ofdev.o
opened_name         0x100             ofdev.o
floppyboot          0x4               ofdev.o
inflate_hufts       0x4               /export/home2/working/netbsd/sys/arch/sparc64/stand/ofwboot/lib/z/libz.a(inftrees.o)

Memory Configuration

Name             Origin             Length            
*default*        0x0000000000000000 0xffffffffffffffff

Linker script and memory map

Address of section .text set to 0x20000
LOAD srt0.o
LOAD Locore.o
LOAD boot.o
LOAD ofdev.o
LOAD alloc.o
LOAD vers.o
LOAD /export/home2/working/netbsd/sys/arch/sparc64/stand/ofwboot/lib/sa/libsa.a
LOAD /export/home2/working/netbsd/sys/arch/sparc64/stand/ofwboot/lib/z/libz.a
LOAD /export/home2/working/netbsd/sys/arch/sparc64/stand/ofwboot/lib/kern/libkern.a
                0x0000000000010074                .=(0x10000+SIZEOF_HEADERS)

.interp
 *(.interp)

.hash
 *(.hash)

.dynsym
 *(.dynsym)

.dynstr
 *(.dynstr)

.rel.text
 *(.rel.text)

.rela.text
 *(.rela.text)

.rel.data
 *(.rel.data)

.rela.data
 *(.rela.data)

.rel.rodata
 *(.rel.rodata)

.rela.rodata
 *(.rela.rodata)

.rel.got
 *(.rel.got)

.rela.got
 *(.rela.got)

.rel.ctors
 *(.rel.ctors)

.rela.ctors
 *(.rela.ctors)

.rel.dtors
 *(.rel.dtors)

.rela.dtors
 *(.rela.dtors)

.rel.init
 *(.rel.init)

.rela.init
 *(.rela.init)

.rel.fini
 *(.rel.fini)

.rela.fini
 *(.rela.fini)

.rel.bss
 *(.rel.bss)

.rela.bss
 *(.rela.bss)

.rel.plt
 *(.rel.plt)

.rela.plt
 *(.rela.plt)

.init
 *(.init)

.text           0x0000000000020000     0x7c6c
 *(.text)
 .text          0x0000000000020000      0x144 srt0.o
                0x0000000000020078                _openfirmware
                0x0000000000020060                _syncicache
                0x0000000000020000                _start
                0x0000000000020000                _kernel_text
 .text          0x0000000000020144      0x79c Locore.o
                0x0000000000020860                putchar
                0x00000000000204fc                OF_alloc_virt
                0x00000000000205c4                OF_map_phys
                0x000000000002026c                OF_write
                0x0000000000020144                _rtt
                0x0000000000020208                OF_open
                0x00000000000202ac                OF_read
                0x0000000000020554                OF_free_virt
                0x0000000000020390                OF_chain
                0x00000000000201c0                OF_getprop
                0x0000000000020190                OF_instance_to_package
                0x0000000000020894                getchar
                0x00000000000204b0                OF_claim_virt
                0x0000000000020370                OF_milliseconds
                0x00000000000203e8                setup
                0x0000000000020700                OF_free_phys
                0x0000000000020344                OF_release
                0x0000000000020644                OF_alloc_phys
                0x0000000000020738                OF_claim
                0x00000000000202ec                OF_seek
                0x000000000002058c                OF_unmap_virt
                0x00000000000206a8                OF_claim_phys
                0x0000000000020250                OF_close
                0x0000000000020160                OF_finddevice
 .text          0x00000000000208e0      0xf48 boot.o
                0x0000000000020bbc                loadfile
                0x0000000000020dec                aout_exec
                0x0000000000021190                elf_exec
                0x0000000000021608                main
 .text          0x0000000000021828      0x8f4 ofdev.o
                0x0000000000021d48                devopen
 .text          0x000000000002211c      0x198 alloc.o
                0x000000000002211c                alloc
                0x00000000000222ac                freeall
                0x000000000002222c                free
 .text          0x00000000000222b4      0x120 /export/home2/working/netbsd/sys/arch/sparc64/stand/ofwboot/lib/sa/libsa.a(gets.o)
                0x00000000000222b4                gets
 .text          0x00000000000223d4       0xac /export/home2/working/netbsd/sys/arch/sparc64/stand/ofwboot/lib/sa/libsa.a(disklabel.o)
                0x00000000000223d4                getdisklabel
 .text          0x0000000000022480       0x3c /export/home2/working/netbsd/sys/arch/sparc64/stand/ofwboot/lib/sa/libsa.a(dkcksum.o)
                0x0000000000022480                dkcksum
 .text          0x00000000000224bc      0xbc8 /export/home2/working/netbsd/sys/arch/sparc64/stand/ofwboot/lib/sa/libsa.a(ufs.o)
                0x0000000000022dac                ufs_close
                0x0000000000022ef4                ufs_seek
                0x00000000000224bc                max
                0x0000000000022e34                ufs_read
                0x0000000000022a30                ufs_open
                0x0000000000022eec                ufs_write
                0x0000000000022f6c                ufs_stat
 .text          0x0000000000023084       0x1c /export/home2/working/netbsd/sys/arch/sparc64/stand/ofwboot/lib/sa/libsa.a(memcpy.o)
                0x0000000000023084                memcpy
 .text          0x00000000000230a0      0x264 /export/home2/working/netbsd/sys/arch/sparc64/stand/ofwboot/lib/sa/libsa.a(strerror.o)
                0x00000000000230a0                strerror
 .text          0x0000000000023304      0x944 /export/home2/working/netbsd/sys/arch/sparc64/stand/ofwboot/lib/sa/libsa.a(cread.o)
                0x00000000000239b0                lseek
                0x0000000000023324                zcfree
                0x000000000002333c                zmemcpy
                0x000000000002374c                read
                0x0000000000023304                zcalloc
                0x00000000000235fc                open
                0x00000000000236d0                close
 .text          0x0000000000023c48       0x64 /export/home2/working/netbsd/sys/arch/sparc64/stand/ofwboot/lib/sa/libsa.a(bcopy.o)
                0x0000000000023c48                bcopy
 .text          0x0000000000023cac       0x78 /export/home2/working/netbsd/sys/arch/sparc64/stand/ofwboot/lib/sa/libsa.a(exit.o)
                0x0000000000023cac                panic
                0x0000000000023d0c                exit
 .text          0x0000000000023d24       0x44 /export/home2/working/netbsd/sys/arch/sparc64/stand/ofwboot/lib/sa/libsa.a(closeall.o)
                0x0000000000023d24                closeall
 .text          0x0000000000023d68       0xdc /export/home2/working/netbsd/sys/arch/sparc64/stand/ofwboot/lib/sa/libsa.a(close.o)
                0x0000000000023d68                oclose
 .text          0x0000000000023e44       0xc8 /export/home2/working/netbsd/sys/arch/sparc64/stand/ofwboot/lib/sa/libsa.a(lseek.o)
                0x0000000000023e44                olseek
 .text          0x0000000000023f0c      0x100 /export/home2/working/netbsd/sys/arch/sparc64/stand/ofwboot/lib/sa/libsa.a(read.o)
                0x0000000000023f0c                oread
 .text          0x000000000002400c      0x3e0 /export/home2/working/netbsd/sys/arch/sparc64/stand/ofwboot/lib/sa/libsa.a(printf.o)
                0x0000000000024064                printf
                0x00000000000243b4                twiddle
                0x0000000000024098                vprintf
                0x0000000000024024                sprintf
 .text          0x00000000000243ec      0x16c /export/home2/working/netbsd/sys/arch/sparc64/stand/ofwboot/lib/sa/libsa.a(open.o)
                0x00000000000243ec                oopen
 .text          0x0000000000024558       0x18 /export/home2/working/netbsd/sys/arch/sparc64/stand/ofwboot/lib/sa/libsa.a(dev.o)
                0x0000000000024558                nodev
                0x0000000000024568                noioctl
                0x0000000000024560                nullsys
 .text          0x0000000000024570      0x180 /export/home2/working/netbsd/sys/arch/sparc64/stand/ofwboot/lib/z/libz.a(crc32.o)
                0x000000000002457c                crc32
                0x0000000000024570                get_crc_table
 .text          0x00000000000246f0      0x9f8 /export/home2/working/netbsd/sys/arch/sparc64/stand/ofwboot/lib/z/libz.a(inflate.o)
                0x0000000000024974                inflate
                0x0000000000024954                inflateInit_
                0x00000000000246f0                inflateReset
                0x0000000000024fbc                inflateSync
                0x0000000000024f08                inflateSetDictionary
                0x000000000002476c                inflateEnd
                0x00000000000247f4                inflateInit2_
 .text          0x00000000000250e8      0x188 /export/home2/working/netbsd/sys/arch/sparc64/stand/ofwboot/lib/z/libz.a(adler32.o)
                0x00000000000250e8                adler32
 .text          0x0000000000025270     0x1034 /export/home2/working/netbsd/sys/arch/sparc64/stand/ofwboot/lib/z/libz.a(infblock.o)
                0x0000000000026228                inflate_blocks_free
                0x00000000000253d8                inflate_blocks
                0x0000000000025270                inflate_blocks_reset
                0x0000000000026278                inflate_set_dictionary
                0x000000000002533c                inflate_blocks_new
 .text          0x00000000000262a4      0x940 /export/home2/working/netbsd/sys/arch/sparc64/stand/ofwboot/lib/z/libz.a(infcodes.o)
                0x00000000000262a4                inflate_codes_new
                0x00000000000262e4                inflate_codes
                0x0000000000026bc8                inflate_codes_free
 .text          0x0000000000026be4      0x370 /export/home2/working/netbsd/sys/arch/sparc64/stand/ofwboot/lib/z/libz.a(inffast.o)
                0x0000000000026be4                inflate_fast
 .text          0x0000000000026f54      0x940 /export/home2/working/netbsd/sys/arch/sparc64/stand/ofwboot/lib/z/libz.a(inftrees.o)
                0x000000000002783c                inflate_trees_free
                0x0000000000027654                inflate_trees_fixed
                0x000000000002747c                inflate_trees_bits
                0x00000000000274f0                inflate_trees_dynamic
 .text          0x0000000000027894      0x148 /export/home2/working/netbsd/sys/arch/sparc64/stand/ofwboot/lib/z/libz.a(infutil.o)
                0x0000000000027894                inflate_flush
 .text          0x00000000000279dc       0x44 /export/home2/working/netbsd/sys/arch/sparc64/stand/ofwboot/lib/kern/libkern.a(ashrdi3.o)
                0x00000000000279dc                __ashrdi3
 .text          0x0000000000027a20      0x24c /export/home2/working/netbsd/sys/arch/sparc64/stand/ofwboot/lib/kern/libkern.a(muldi3.o)
                0x0000000000027a20                __muldi3
 *(.gnu.warning)
                0x0000000000027c6c                _etext=.
                0x0000000000027c6c                PROVIDE (etext, .)

.fini
 *(.fini)

.rodata         0x0000000000027c70      0xe1e
 *(.rodata)
 .rodata        0x0000000000027c70      0x161 Locore.o
 *fill*         0x0000000000027dd1 0x700082000
 .rodata        0x0000000000027dd8      0x2f8 boot.o
                0x0000000000027dd8                kernelname
 .rodata        0x00000000000280d0      0x137 ofdev.o
 *fill*         0x0000000000028207 0x100082000
 .rodata        0x0000000000028208       0x3c alloc.o
 *fill*         0x0000000000028244 0x400082000
 .rodata        0x0000000000028248       0x25 /export/home2/working/netbsd/sys/arch/sparc64/stand/ofwboot/lib/sa/libsa.a(disklabel.o)
 *fill*         0x000000000002826d 0x300082000
 .rodata        0x0000000000028270      0x17f /export/home2/working/netbsd/sys/arch/sparc64/stand/ofwboot/lib/sa/libsa.a(strerror.o)
 *fill*         0x00000000000283ef 0x100082000
 .rodata        0x00000000000283f0       0x19 /export/home2/working/netbsd/sys/arch/sparc64/stand/ofwboot/lib/sa/libsa.a(cread.o)
 *fill*         0x0000000000028409 0x700082000
 .rodata        0x0000000000028410        0xd /export/home2/working/netbsd/sys/arch/sparc64/stand/ofwboot/lib/sa/libsa.a(exit.o)
 *fill*         0x000000000002841d 0x300082000
 .rodata        0x0000000000028420       0x1d /export/home2/working/netbsd/sys/arch/sparc64/stand/ofwboot/lib/sa/libsa.a(printf.o)
 *fill*         0x000000000002843d 0x300082000
 .rodata        0x0000000000028440       0xe8 /export/home2/working/netbsd/sys/arch/sparc64/stand/ofwboot/lib/z/libz.a(inflate.o)
 .rodata        0x0000000000028528      0x279 /export/home2/working/netbsd/sys/arch/sparc64/stand/ofwboot/lib/z/libz.a(infblock.o)
 *fill*         0x00000000000287a1 0x700082000
 .rodata        0x00000000000287a8      0x11b /export/home2/working/netbsd/sys/arch/sparc64/stand/ofwboot/lib/z/libz.a(infcodes.o)
 *fill*         0x00000000000288c3 0x500082000
 .rodata        0x00000000000288c8       0xec /export/home2/working/netbsd/sys/arch/sparc64/stand/ofwboot/lib/z/libz.a(inffast.o)
 *fill*         0x00000000000289b4 0x400082000
 .rodata        0x00000000000289b8       0xd6 /export/home2/working/netbsd/sys/arch/sparc64/stand/ofwboot/lib/z/libz.a(inftrees.o)

.rodata1
 *(.rodata1)
                0x0000000000028a8e                .=.

.data           0x0000000000028a90      0xc00
 *(.data)
 .data          0x0000000000028a90       0x10 srt0.o
                0x0000000000028a98                _romp
                0x0000000000028a90                _esym
 .data          0x0000000000028aa0      0x490 Locore.o
 .data          0x0000000000028f30       0x48 ofdev.o
                0x0000000000028f44                ndevs
 .data          0x0000000000028f78        0x8 alloc.o
                0x0000000000028f7c                allocatedlist
                0x0000000000028f78                freelist
 .data          0x0000000000028f80       0x5c vers.o
                0x0000000000028fa8                bootprog_rev
                0x0000000000028fb0                bootprog_date
                0x0000000000028fd0                bootprog_maker
                0x0000000000028f80                bootprog_name
 .data          0x0000000000028fdc        0x8 /export/home2/working/netbsd/sys/arch/sparc64/stand/ofwboot/lib/sa/libsa.a(cread.o)
 .data          0x0000000000028fe4      0x400 /export/home2/working/netbsd/sys/arch/sparc64/stand/ofwboot/lib/z/libz.a(crc32.o)
 .data          0x00000000000293e4       0x4c /export/home2/working/netbsd/sys/arch/sparc64/stand/ofwboot/lib/z/libz.a(infblock.o)
 .data          0x0000000000029430      0x21c /export/home2/working/netbsd/sys/arch/sparc64/stand/ofwboot/lib/z/libz.a(inftrees.o)
                0x0000000000029430                inflate_copyright
 .data          0x000000000002964c       0x44 /export/home2/working/netbsd/sys/arch/sparc64/stand/ofwboot/lib/z/libz.a(infutil.o)
                0x000000000002964c                inflate_mask

.data1
 *(.data1)

.ctors
 *(.ctors)

.dtors
 *(.dtors)

.got
 *(.got.plt)
 *(.got)

.dynamic
 *(.dynamic)

.plt
 *(.plt)

.sdata
 *(.sdata)
                0x0000000000029690                _edata=.
                0x0000000000029690                PROVIDE (edata, .)
                0x0000000000029690                __bss_start=.

.sbss
 *(.sbss)
 *(.scommon)

.bss            0x0000000000029690     0x1458
 *(.dynbss)
 *(.bss)
 .bss           0x0000000000029690       0x14 Locore.o
 *fill*         0x00000000000296a4 0xc00082000
 .bss           0x00000000000296b0        0x4 ofdev.o
 .bss           0x00000000000296b4       0x40 /export/home2/working/netbsd/sys/arch/sparc64/stand/ofwboot/lib/sa/libsa.a(strerror.o)
 *fill*         0x00000000000296f4 0xc00082000
 .bss           0x0000000000029700       0x10 /export/home2/working/netbsd/sys/arch/sparc64/stand/ofwboot/lib/sa/libsa.a(cread.o)
 .bss           0x0000000000029710        0x4 /export/home2/working/netbsd/sys/arch/sparc64/stand/ofwboot/lib/sa/libsa.a(exit.o)
 *fill*         0x0000000000029714 0xc00082000
 .bss           0x0000000000029720       0x14 /export/home2/working/netbsd/sys/arch/sparc64/stand/ofwboot/lib/sa/libsa.a(printf.o)
 *fill*         0x0000000000029734 0xc00082000
 .bss           0x0000000000029740     0x10c4 /export/home2/working/netbsd/sys/arch/sparc64/stand/ofwboot/lib/z/libz.a(inftrees.o)
 *(COMMON)
 COMMON         0x000000000002a804      0x108 boot.o
                0x000000000002a804                boothowto
                0x000000000002a808                bootdev
                0x000000000002a888                debug
                0x000000000002a88c                bootfile
 COMMON         0x000000000002a90c      0x150 ofdev.o
                0x000000000002a90c                nfsys
                0x000000000002a910                file_system
                0x000000000002a958                opened_name
                0x000000000002aa58                floppyboot
 *fill*         0x000000000002aa5c 0x400082000
 COMMON         0x000000000002aa60       0x80 /export/home2/working/netbsd/sys/arch/sparc64/stand/ofwboot/lib/sa/libsa.a(open.o)
                0x000000000002aa60                files
 COMMON         0x000000000002aae0        0x4 /export/home2/working/netbsd/sys/arch/sparc64/stand/ofwboot/lib/sa/libsa.a(dev.o)
                0x000000000002aae0                errno
 COMMON         0x000000000002aae4        0x4 /export/home2/working/netbsd/sys/arch/sparc64/stand/ofwboot/lib/z/libz.a(inftrees.o)
                0x000000000002aae4                inflate_hufts
                0x000000000002aae8                _end=.
                0x000000000002aae8                PROVIDE (end, .)

.stab
 *(.stab)

.stabstr
 *(.stabstr)

.stab.excl
 *(.stab.excl)

.stab.exclstr
 *(.stab.exclstr)

.stab.index
 *(.stab.index)

.stab.indexstr
 *(.stab.indexstr)

.comment        0x0000000000000000      0x22e
 *(.comment)
 .comment       0x0000000000000000       0x12 Locore.o
 .comment       0x0000000000000012       0x12 boot.o
 .comment       0x0000000000000024       0x12 ofdev.o
 .comment       0x0000000000000036       0x12 alloc.o
 .comment       0x0000000000000048       0x12 vers.o
 .comment       0x000000000000005a       0x12 /export/home2/working/netbsd/sys/arch/sparc64/stand/ofwboot/lib/sa/libsa.a(gets.o)
 .comment       0x000000000000006c       0x12 /export/home2/working/netbsd/sys/arch/sparc64/stand/ofwboot/lib/sa/libsa.a(disklabel.o)
 .comment       0x000000000000007e       0x12 /export/home2/working/netbsd/sys/arch/sparc64/stand/ofwboot/lib/sa/libsa.a(dkcksum.o)
 .comment       0x0000000000000090       0x12 /export/home2/working/netbsd/sys/arch/sparc64/stand/ofwboot/lib/sa/libsa.a(ufs.o)
 .comment       0x00000000000000a2       0x12 /export/home2/working/netbsd/sys/arch/sparc64/stand/ofwboot/lib/sa/libsa.a(memcpy.o)
 .comment       0x00000000000000b4       0x12 /export/home2/working/netbsd/sys/arch/sparc64/stand/ofwboot/lib/sa/libsa.a(strerror.o)
 .comment       0x00000000000000c6       0x12 /export/home2/working/netbsd/sys/arch/sparc64/stand/ofwboot/lib/sa/libsa.a(cread.o)
 .comment       0x00000000000000d8       0x12 /export/home2/working/netbsd/sys/arch/sparc64/stand/ofwboot/lib/sa/libsa.a(bcopy.o)
 .comment       0x00000000000000ea       0x12 /export/home2/working/netbsd/sys/arch/sparc64/stand/ofwboot/lib/sa/libsa.a(exit.o)
 .comment       0x00000000000000fc       0x12 /export/home2/working/netbsd/sys/arch/sparc64/stand/ofwboot/lib/sa/libsa.a(closeall.o)
 .comment       0x000000000000010e       0x12 /export/home2/working/netbsd/sys/arch/sparc64/stand/ofwboot/lib/sa/libsa.a(close.o)
 .comment       0x0000000000000120       0x12 /export/home2/working/netbsd/sys/arch/sparc64/stand/ofwboot/lib/sa/libsa.a(lseek.o)
 .comment       0x0000000000000132       0x12 /export/home2/working/netbsd/sys/arch/sparc64/stand/ofwboot/lib/sa/libsa.a(read.o)
 .comment       0x0000000000000144       0x12 /export/home2/working/netbsd/sys/arch/sparc64/stand/ofwboot/lib/sa/libsa.a(printf.o)
 .comment       0x0000000000000156       0x12 /export/home2/working/netbsd/sys/arch/sparc64/stand/ofwboot/lib/sa/libsa.a(open.o)
 .comment       0x0000000000000168       0x12 /export/home2/working/netbsd/sys/arch/sparc64/stand/ofwboot/lib/sa/libsa.a(dev.o)
 .comment       0x000000000000017a       0x12 /export/home2/working/netbsd/sys/arch/sparc64/stand/ofwboot/lib/z/libz.a(crc32.o)
 .comment       0x000000000000018c       0x12 /export/home2/working/netbsd/sys/arch/sparc64/stand/ofwboot/lib/z/libz.a(inflate.o)
 .comment       0x000000000000019e       0x12 /export/home2/working/netbsd/sys/arch/sparc64/stand/ofwboot/lib/z/libz.a(adler32.o)
 .comment       0x00000000000001b0       0x12 /export/home2/working/netbsd/sys/arch/sparc64/stand/ofwboot/lib/z/libz.a(infblock.o)
 .comment       0x00000000000001c2       0x12 /export/home2/working/netbsd/sys/arch/sparc64/stand/ofwboot/lib/z/libz.a(infcodes.o)
 .comment       0x00000000000001d4       0x12 /export/home2/working/netbsd/sys/arch/sparc64/stand/ofwboot/lib/z/libz.a(inffast.o)
 .comment       0x00000000000001e6       0x12 /export/home2/working/netbsd/sys/arch/sparc64/stand/ofwboot/lib/z/libz.a(inftrees.o)
 .comment       0x00000000000001f8       0x12 /export/home2/working/netbsd/sys/arch/sparc64/stand/ofwboot/lib/z/libz.a(infutil.o)
 .comment       0x000000000000020a       0x12 /export/home2/working/netbsd/sys/arch/sparc64/stand/ofwboot/lib/kern/libkern.a(ashrdi3.o)
 .comment       0x000000000000021c       0x12 /export/home2/working/netbsd/sys/arch/sparc64/stand/ofwboot/lib/kern/libkern.a(muldi3.o)

.debug
 *(.debug)

.debug_srcinfo
 *(.debug_srcinfo)

.debug_aranges
 *(.debug_aranges)

.debug_pubnames
 *(.debug_pubnames)

.debug_sfnames
 *(.debug_sfnames)

.line
 *(.line)
OUTPUT(ofwboot elf32-sparc)
