Certificate:
    Data:
        Version: 3 (0x2)
        Serial Number: 7760573232607207433 (0x6bb3183cdef52009)
        Signature Algorithm: sha256WithRSAEncryption
        Issuer: C=UA, ST=Kharkiv Oblast', L=Kharkiv, O=Internet Systems Consortium, CN=ca.test.example.com
        Validity
            Not Before: Aug 14 05:00:00 2012 GMT
            Not After : Aug 14 06:00:00 2012 GMT
        Subject: CN=srv01.client03-ns2-expired.example.com
        Subject Public Key Info:
            Public Key Algorithm: id-ecPublicKey
                Public-Key: (384 bit)
                pub:
                    04:38:9a:9b:c2:6a:82:a6:d1:50:8a:78:7a:d1:be:
                    61:be:d4:b6:d3:d6:a2:02:97:a4:48:50:c0:c5:1d:
                    d8:2d:23:19:25:6e:91:02:1d:69:c2:77:d6:f1:a8:
                    4f:4a:9a:1d:3c:69:5a:89:41:0a:f2:e0:64:57:1b:
                    0e:9e:df:9f:4c:7b:3c:42:dc:21:c8:2c:95:ab:b3:
                    4c:5f:56:c4:70:ee:8a:a4:e4:46:c4:9e:98:f5:c8:
                    7b:b2:73:d7:45:93:f0
                ASN1 OID: secp384r1
                NIST CURVE: P-384
        X509v3 extensions:
            X509v3 Subject Alternative Name:
                DNS:srv01.client03-ns2-expired.example.com
    Signature Algorithm: sha256WithRSAEncryption
         38:12:1f:5f:26:b6:8e:9b:3f:77:89:5a:b8:e8:46:78:c3:d6:
         f0:0c:67:5f:d5:a3:9c:f6:f2:0a:ae:9c:87:74:9f:a3:5b:8a:
         27:58:47:e5:78:1a:e9:db:b5:cc:28:a7:f8:18:e3:e7:20:43:
         cf:82:06:5d:a1:d0:82:ab:15:be:86:46:1e:e6:4d:ad:78:a4:
         16:6c:99:41:3d:29:21:c8:6b:9d:3d:4a:cd:93:37:1f:1c:88:
         c7:ae:b6:7c:73:42:57:57:32:9d:e8:c6:e2:3e:da:12:57:3e:
         c8:56:4a:bb:d4:01:fc:8e:30:8d:19:fe:61:3d:5e:02:64:65:
         a2:46:b3:6e:ea:f9:cb:4e:f0:b9:f6:bc:6b:38:10:19:d0:93:
         f8:f7:d9:4c:d2:87:2c:7f:dc:f5:00:c6:29:dd:00:5e:d2:f4:
         df:52:fb:7a:5a:ad:98:36:77:72:1f:01:ed:48:91:48:16:2d:
         35:a5:15:21:98:ff:7e:5d:a1:45:c9:5f:9d:c2:3e:e5:98:e2:
         ee:ce:4d:18:76:3d:8a:0a:64:9b:f1:19:9d:b6:82:af:1b:15:
         d3:48:69:f1:9b:67:76:1b:41:8e:1d:69:d5:31:64:95:01:41:
         73:c1:a9:29:53:6b:f3:29:ad:e0:96:52:8e:3e:8d:c1:8e:d8:
         b5:0c:94:5f:a2:6c:3c:0f:3e:5b:10:af:21:00:74:d0:b7:30:
         6c:44:fb:3d:09:46:8d:1d:e6:c2:e4:0a:5b:f4:eb:e1:71:c7:
         d5:36:13:90:05:fe:65:16:61:24:b5:41:f2:10:bd:2c:c3:34:
         69:15:25:d1:32:f2:b3:d7:da:23:1b:e9:5b:33:63:43:c8:dc:
         68:f2:31:b5:93:0e:64:ea:9a:45:36:9f:96:44:38:1e:4e:d8:
         45:ba:37:68:06:4d:da:d4:16:d3:3e:77:86:4e:8d:58:d6:06:
         a8:60:11:4d:d9:81:f3:85:2b:ee:58:50:6e:ea:2b:f7:84:00:
         9c:ec:a1:90:d4:94
-----BEGIN CERTIFICATE-----
MIIDNzCCAZ+gAwIBAgIIa7MYPN71IAkwDQYJKoZIhvcNAQELBQAwfTELMAkGA1UE
BhMCVUExGDAWBgNVBAgMD0toYXJraXYgT2JsYXN0JzEQMA4GA1UEBwwHS2hhcmtp
djEkMCIGA1UECgwbSW50ZXJuZXQgU3lzdGVtcyBDb25zb3J0aXVtMRwwGgYDVQQD
DBNjYS50ZXN0LmV4YW1wbGUuY29tMB4XDTEyMDgxNDA1MDAwMFoXDTEyMDgxNDA2
MDAwMFowMTEvMC0GA1UEAwwmc3J2MDEuY2xpZW50MDMtbnMyLWV4cGlyZWQuZXhh
bXBsZS5jb20wdjAQBgcqhkjOPQIBBgUrgQQAIgNiAAQ4mpvCaoKm0VCKeHrRvmG+
1LbT1qICl6RIUMDFHdgtIxklbpECHWnCd9bxqE9Kmh08aVqJQQry4GRXGw6e359M
ezxC3CHILJWrs0xfVsRw7oqk5EbEnpj1yHuyc9dFk/CjNTAzMDEGA1UdEQQqMCiC
JnNydjAxLmNsaWVudDAzLW5zMi1leHBpcmVkLmV4YW1wbGUuY29tMA0GCSqGSIb3
DQEBCwUAA4IBgQA4Eh9fJraOmz93iVq46EZ4w9bwDGdf1aOc9vIKrpyHdJ+jW4on
WEfleBrp27XMKKf4GOPnIEPPggZdodCCqxW+hkYe5k2teKQWbJlBPSkhyGudPUrN
kzcfHIjHrrZ8c0JXVzKd6MbiPtoSVz7IVkq71AH8jjCNGf5hPV4CZGWiRrNu6vnL
TvC59rxrOBAZ0JP499lM0ocsf9z1AMYp3QBe0vTfUvt6Wq2YNndyHwHtSJFIFi01
pRUhmP9+XaFFyV+dwj7lmOLuzk0Ydj2KCmSb8RmdtoKvGxXTSGnxm2d2G0GOHWnV
MWSVAUFzwakpU2vzKa3gllKOPo3Bjti1DJRfomw8Dz5bEK8hAHTQtzBsRPs9CUaN
HebC5Apb9OvhccfVNhOQBf5lFmEktUHyEL0swzRpFSXRMvKz19ojG+lbM2NDyNxo
8jG1kw5k6ppFNp+WRDgeTthFujdoBk3a1BbTPneGTo1Y1gaoYBFN2YHzhSvuWFBu
6iv3hACc7KGQ1JQ=
-----END CERTIFICATE-----
