Certificate:
    Data:
        Version: 3 (0x2)
        Serial Number: 7760573232607207431 (0x6bb3183cdef52007)
        Signature Algorithm: sha256WithRSAEncryption
        Issuer: C=UA, ST=Kharkiv Oblast', L=Kharkiv, O=Internet Systems Consortium, CN=ca.test.example.com
        Validity
            Not Before: Feb 10 17:44:20 2022 GMT
            Not After : Feb  3 17:44:20 2052 GMT
        Subject: CN=srv01.client01.example.com
        Subject Public Key Info:
            Public Key Algorithm: id-ecPublicKey
                Public-Key: (384 bit)
                pub:
                    04:5e:93:6a:7a:da:75:cc:64:08:e4:f8:f9:2f:2b:
                    85:36:ee:e1:df:fa:cd:4c:60:f1:44:b5:16:7b:f9:
                    03:cf:a0:08:67:6f:ae:27:a3:95:8a:68:1e:63:ab:
                    cf:2e:20:62:52:e7:8c:3e:1e:ef:de:0d:69:64:65:
                    b6:e4:df:fe:1a:48:f8:68:75:84:83:11:fb:81:59:
                    0e:c1:96:48:7f:24:da:11:dd:ac:cb:0a:c5:09:78:
                    24:31:3a:df:37:e6:b3
                ASN1 OID: secp384r1
                NIST CURVE: P-384
        X509v3 extensions:
            X509v3 Subject Alternative Name:
                DNS:srv01.client01.example.com
    Signature Algorithm: sha256WithRSAEncryption
         82:bd:eb:8f:4e:a5:d2:46:c7:d8:70:3c:34:1d:58:43:1b:81:
         16:5d:c2:b0:76:4b:a9:f2:10:14:23:e4:ef:dc:59:03:b6:7f:
         b0:40:34:e5:d0:82:4b:95:a6:07:9a:45:51:94:cf:08:c2:4e:
         c9:44:d5:f3:b6:ed:f2:a0:01:94:ad:e0:0e:0f:ab:85:6f:35:
         4b:07:c8:97:25:fb:69:ff:a1:99:bc:ec:70:6c:51:b5:32:95:
         e9:c9:45:cf:45:e2:c5:5e:b1:59:a2:e1:f2:83:c8:87:68:c4:
         60:e2:db:50:6c:18:64:1b:9a:9a:cc:7c:e7:fd:d9:f2:b7:d1:
         de:1d:ec:29:c9:58:db:7b:9a:a1:06:9a:ce:36:a0:45:10:dc:
         7d:81:24:21:34:30:4c:71:f9:fc:96:37:d6:cf:0d:9d:11:12:
         c7:62:bc:19:5b:79:e5:e0:37:e8:17:36:4b:13:af:fa:2c:2e:
         36:d9:be:53:e1:c3:f9:bc:94:a6:7a:97:14:99:36:f9:14:38:
         11:20:3a:2a:9d:fd:64:63:d0:a2:8f:f0:99:a9:02:ca:57:48:
         d2:7d:65:44:b6:85:a0:38:ec:e8:19:7e:c2:48:e3:1d:22:53:
         cf:3b:d4:0a:98:e1:72:62:ec:8b:01:3f:5a:ea:26:2c:8c:16:
         c3:80:5a:c2:5d:40:c5:65:1c:e2:9a:e3:d6:65:16:ee:dc:17:
         30:d8:26:87:92:d0:ef:c7:72:07:99:86:05:9e:49:35:41:33:
         b9:bb:cb:1b:25:50:70:85:e3:0f:c7:b9:b2:37:00:1b:87:a2:
         47:97:34:5b:cd:dc:66:22:e5:de:25:ec:57:fe:37:75:2c:03:
         10:f4:d4:a7:cc:f5:4b:0b:ff:eb:d3:a6:78:2e:cd:8f:65:51:
         a7:8c:ef:83:67:ec:94:13:c2:1f:74:74:55:7c:a3:0b:b7:2f:
         80:5a:62:04:1d:a2:c0:c1:de:b2:7d:31:3b:a1:fa:f7:40:a7:
         bd:12:25:95:5b:8b
-----BEGIN CERTIFICATE-----
MIIDITCCAYmgAwIBAgIIa7MYPN71IAcwDQYJKoZIhvcNAQELBQAwfTELMAkGA1UE
BhMCVUExGDAWBgNVBAgMD0toYXJraXYgT2JsYXN0JzEQMA4GA1UEBwwHS2hhcmtp
djEkMCIGA1UECgwbSW50ZXJuZXQgU3lzdGVtcyBDb25zb3J0aXVtMRwwGgYDVQQD
DBNjYS50ZXN0LmV4YW1wbGUuY29tMCAXDTIyMDIxMDE3NDQyMFoYDzIwNTIwMjAz
MTc0NDIwWjAlMSMwIQYDVQQDDBpzcnYwMS5jbGllbnQwMS5leGFtcGxlLmNvbTB2
MBAGByqGSM49AgEGBSuBBAAiA2IABF6TanradcxkCOT4+S8rhTbu4d/6zUxg8US1
Fnv5A8+gCGdvriejlYpoHmOrzy4gYlLnjD4e794NaWRltuTf/hpI+Gh1hIMR+4FZ
DsGWSH8k2hHdrMsKxQl4JDE63zfms6MpMCcwJQYDVR0RBB4wHIIac3J2MDEuY2xp
ZW50MDEuZXhhbXBsZS5jb20wDQYJKoZIhvcNAQELBQADggGBAIK9649OpdJGx9hw
PDQdWEMbgRZdwrB2S6nyEBQj5O/cWQO2f7BANOXQgkuVpgeaRVGUzwjCTslE1fO2
7fKgAZSt4A4Pq4VvNUsHyJcl+2n/oZm87HBsUbUylenJRc9F4sVesVmi4fKDyIdo
xGDi21BsGGQbmprMfOf92fK30d4d7CnJWNt7mqEGms42oEUQ3H2BJCE0MExx+fyW
N9bPDZ0REsdivBlbeeXgN+gXNksTr/osLjbZvlPhw/m8lKZ6lxSZNvkUOBEgOiqd
/WRj0KKP8JmpAspXSNJ9ZUS2haA47OgZfsJI4x0iU8871AqY4XJi7IsBP1rqJiyM
FsOAWsJdQMVlHOKa49ZlFu7cFzDYJoeS0O/HcgeZhgWeSTVBM7m7yxslUHCF4w/H
ubI3ABuHokeXNFvN3GYi5d4l7Ff+N3UsAxD01KfM9UsL/+vTpnguzY9lUaeM74Nn
7JQTwh90dFV8owu3L4BaYgQdosDB3rJ9MTuh+vdAp70SJZVbiw==
-----END CERTIFICATE-----
