Certificate:
    Data:
        Version: 3 (0x2)
        Serial Number: 7760573232607207432 (0x6bb3183cdef52008)
        Signature Algorithm: sha256WithRSAEncryption
        Issuer: C=UA, ST=Kharkiv Oblast', L=Kharkiv, O=Internet Systems Consortium, CN=ca.test.example.com
        Validity
            Not Before: Feb 11 13:21:12 2022 GMT
            Not After : Feb  4 13:21:12 2052 GMT
        Subject: CN=srv01.client02-ns2.example.com
        Subject Public Key Info:
            Public Key Algorithm: id-ecPublicKey
                Public-Key: (384 bit)
                pub:
                    04:e6:45:fa:57:12:6c:59:10:23:8b:7a:5c:76:33:
                    eb:3b:41:fa:b7:1c:90:b3:2f:33:2d:45:7b:e3:e5:
                    b6:a5:a2:a2:a4:14:f4:50:9d:b0:c6:38:ba:e9:45:
                    65:a4:65:b9:10:32:2f:93:9b:d5:d8:cf:b4:29:5b:
                    dc:4e:c8:ec:a6:9f:58:76:24:f4:c5:d1:48:55:52:
                    eb:5d:b0:85:93:85:ee:3e:b8:c4:b1:cd:08:59:95:
                    12:ff:7b:9b:ee:6a:b9
                ASN1 OID: secp384r1
                NIST CURVE: P-384
        X509v3 extensions:
            X509v3 Subject Alternative Name:
                DNS:srv01.client02-ns2.example.com
    Signature Algorithm: sha256WithRSAEncryption
         43:ec:0f:62:17:f6:f4:90:3b:7c:36:21:f2:18:94:a6:42:51:
         1e:1d:2a:43:8f:05:b7:8d:3c:ca:f0:20:2f:65:4b:be:48:ad:
         6a:0a:cc:2d:1f:d6:27:1d:af:4a:36:86:ed:0d:03:75:c5:71:
         ec:58:9b:ec:f9:0f:e4:83:ef:6f:91:da:20:73:47:ac:e7:c7:
         8b:22:b2:d1:6e:a0:b0:d6:1c:4c:70:1e:74:08:1d:7f:61:06:
         e5:be:f3:e8:c4:15:60:e2:b0:02:9b:f0:13:af:76:5b:a8:c7:
         91:2c:10:5f:0d:32:89:51:5a:7f:17:1b:7c:c6:46:97:ee:e7:
         bb:8a:48:38:a2:52:d4:ff:3b:1c:ec:4a:a9:8c:a5:23:3a:04:
         bb:d7:b8:ad:5b:69:7f:1d:be:ca:96:e0:eb:56:05:43:ee:c8:
         ff:2c:48:03:00:c6:c2:ac:fc:4e:15:47:86:c5:33:ed:70:f6:
         98:bc:0b:07:b9:5b:1a:ec:fd:3c:bf:26:61:68:fc:db:02:55:
         07:ae:76:0e:be:ff:c5:b8:56:fb:52:54:a4:b1:2d:64:b4:1d:
         55:02:4f:da:06:bd:26:e4:22:d2:94:1f:7e:29:c4:97:10:d1:
         75:7d:41:53:be:46:52:70:b1:d9:ff:bb:9f:96:19:e3:a0:ba:
         d0:4a:5a:8d:da:22:73:89:f0:4c:e6:18:80:53:be:bd:64:56:
         6a:c9:58:71:40:66:9e:4a:3e:31:3b:74:9e:6e:6a:f5:65:ca:
         93:06:52:00:74:65:a0:3a:eb:2e:56:56:d2:a5:4b:0e:85:17:
         25:78:cb:f3:f9:53:7b:85:f9:82:15:87:bc:36:70:b5:69:64:
         48:11:79:b9:2c:2e:cc:09:fd:0f:b0:b7:cd:97:3b:c7:0f:49:
         1a:fc:15:49:d6:1c:a9:dc:14:ff:44:d2:be:5a:36:00:66:0c:
         d5:b8:bf:16:9e:60:27:79:c0:f5:b4:ff:2f:af:8c:b2:49:75:
         61:44:05:1a:e8:cd
-----BEGIN CERTIFICATE-----
MIIDKTCCAZGgAwIBAgIIa7MYPN71IAgwDQYJKoZIhvcNAQELBQAwfTELMAkGA1UE
BhMCVUExGDAWBgNVBAgMD0toYXJraXYgT2JsYXN0JzEQMA4GA1UEBwwHS2hhcmtp
djEkMCIGA1UECgwbSW50ZXJuZXQgU3lzdGVtcyBDb25zb3J0aXVtMRwwGgYDVQQD
DBNjYS50ZXN0LmV4YW1wbGUuY29tMCAXDTIyMDIxMTEzMjExMloYDzIwNTIwMjA0
MTMyMTEyWjApMScwJQYDVQQDDB5zcnYwMS5jbGllbnQwMi1uczIuZXhhbXBsZS5j
b20wdjAQBgcqhkjOPQIBBgUrgQQAIgNiAATmRfpXEmxZECOLelx2M+s7Qfq3HJCz
LzMtRXvj5baloqKkFPRQnbDGOLrpRWWkZbkQMi+Tm9XYz7QpW9xOyOymn1h2JPTF
0UhVUutdsIWThe4+uMSxzQhZlRL/e5vuarmjLTArMCkGA1UdEQQiMCCCHnNydjAx
LmNsaWVudDAyLW5zMi5leGFtcGxlLmNvbTANBgkqhkiG9w0BAQsFAAOCAYEAQ+wP
Yhf29JA7fDYh8hiUpkJRHh0qQ48Ft408yvAgL2VLvkitagrMLR/WJx2vSjaG7Q0D
dcVx7Fib7PkP5IPvb5HaIHNHrOfHiyKy0W6gsNYcTHAedAgdf2EG5b7z6MQVYOKw
ApvwE692W6jHkSwQXw0yiVFafxcbfMZGl+7nu4pIOKJS1P87HOxKqYylIzoEu9e4
rVtpfx2+ypbg61YFQ+7I/yxIAwDGwqz8ThVHhsUz7XD2mLwLB7lbGuz9PL8mYWj8
2wJVB652Dr7/xbhW+1JUpLEtZLQdVQJP2ga9JuQi0pQffinElxDRdX1BU75GUnCx
2f+7n5YZ46C60Epajdoic4nwTOYYgFO+vWRWaslYcUBmnko+MTt0nm5q9WXKkwZS
AHRloDrrLlZW0qVLDoUXJXjL8/lTe4X5ghWHvDZwtWlkSBF5uSwuzAn9D7C3zZc7
xw9JGvwVSdYcqdwU/0TSvlo2AGYM1bi/Fp5gJ3nA9bT/L6+Mskl1YUQFGujN
-----END CERTIFICATE-----
