/* This testcase is part of GDB, the GNU debugger.

   Copyright 2012-2020 Free Software Foundation, Inc.

   This program is free software; you can redistribute it and/or modify
   it under the terms of the GNU General Public License as published by
   the Free Software Foundation; either version 3 of the License, or
   (at your option) any later version.

   This program is distributed in the hope that it will be useful,
   but WITHOUT ANY WARRANTY; without even the implied warranty of
   MERCHANTABILITY or FITNESS FOR A PARTICULAR PURPOSE.  See the
   GNU General Public License for more details.

   You should have received a copy of the GNU General Public License
   along with this program.  If not, see <http://www.gnu.org/licenses/>.

   This file was created by doing:

   clang fission-multi-cu*.c -g -fno-split-dwarf-inlining -emit-llvm -S -c
   llvm-link fission-multi-cu*.ll -S -o fission-multi-cu.ll
   clang-tot fission-multi-cu.ll -gsplit-dwarf -S

   and then massaging the output.
*/
	.text
	.file	"llvm-link"
	.globl	func
	.p2align	4, 0x90
	.type	func,@function
func:                                   # @func
.Lfunc_begin0:
	.file	1 "fission-multi-cu1.c"
	.loc	1 20 0                  # fission-multi-cu1.c:20:0
	.cfi_startproc
# BB#0:                                 # %entry
	pushq	%rbp
	.cfi_def_cfa_offset 16
	.cfi_offset %rbp, -16
	movq	%rsp, %rbp
	.cfi_def_cfa_register %rbp
	movl	%edi, -4(%rbp)
	.loc	1 21 10 prologue_end    # fission-multi-cu1.c:21:10
	movl	-4(%rbp), %edi
	.loc	1 21 14 is_stmt 0       # fission-multi-cu1.c:21:14
	addl	$1, %edi
	.loc	1 21 3                  # fission-multi-cu1.c:21:3
	movl	%edi, %eax
	popq	%rbp
	retq
.Lfunc_end0:
	.size	func, .Lfunc_end0-func
	.cfi_endproc

	.globl	main
	.p2align	4, 0x90
	.type	main,@function
main:                                   # @main
.Lfunc_begin1:
	.file	2 "fission-multi-cu2.c"
	.loc	2 23 0 is_stmt 1        # fission-multi-cu2.c:23:0
	.cfi_startproc
# BB#0:                                 # %entry
	pushq	%rbp
	.cfi_def_cfa_offset 16
	.cfi_offset %rbp, -16
	movq	%rsp, %rbp
	.cfi_def_cfa_register %rbp
	movl	$4294967295, %edi       # imm = 0xFFFFFFFF
	.loc	2 24 3 prologue_end     # fission-multi-cu2.c:24:3
	movb	$0, %al
	callq	func
	xorl	%eax, %eax
	.loc	2 25 1                  # fission-multi-cu2.c:25:1
	popq	%rbp
	retq
.Lfunc_end1:
	.size	main, .Lfunc_end1-main
	.cfi_endproc

	.section	".note.GNU-stack","",@progbits