Certificate:
    Data:
        Version: 3 (0x2)
        Serial Number: 9 (0x9)
    Signature Algorithm: sha1WithRSAEncryption
        Issuer: CN=hx509 Test Root CA, C=SE
        Validity
            Not Before: May 23 15:05:17 2019 GMT
            Not After : Jan 16 15:05:17 2038 GMT
        Subject: C=SE, CN=www.test.h5l.se
        Subject Public Key Info:
            Public Key Algorithm: rsaEncryption
                Public-Key: (4096 bit)
                Modulus:
                    00:b5:58:e9:eb:2d:b3:7c:94:b7:a2:08:ec:fd:50:
                    c2:61:a4:35:c8:eb:ad:d6:93:4c:50:9a:ad:e0:9a:
                    00:ae:4e:ef:ed:5e:ef:d9:cb:98:a6:5e:65:7f:a6:
                    38:c0:ee:17:48:90:80:4c:6c:71:7a:11:af:11:22:
                    1b:17:2c:db:c2:cc:2c:d0:0e:de:ea:95:6a:d0:42:
                    bb:b0:a1:eb:7c:9e:f0:28:64:dd:44:7f:c8:f6:d5:
                    48:e4:80:be:f7:58:18:d6:d4:57:7a:09:07:3f:23:
                    d8:00:53:84:0f:72:e9:0d:a8:b9:49:57:80:f4:00:
                    9c:92:16:bd:a7:ea:12:81:96:59:48:8b:ff:b9:8b:
                    9d:68:e6:7c:0d:fb:c8:57:cc:ba:6a:4c:57:cc:e4:
                    eb:af:cc:6e:38:80:e6:47:a0:f2:e4:09:39:79:fb:
                    42:c4:29:b2:8d:f1:8f:b9:45:1f:47:c2:e8:30:84:
                    a5:e7:fa:7c:df:f0:07:89:1e:fd:6f:a5:1d:88:57:
                    4e:76:bf:91:c7:39:ac:87:6f:b0:29:0b:c0:04:89:
                    95:9a:8a:b3:4a:22:63:7c:26:e2:ea:fc:e5:f8:43:
                    b5:67:50:0f:99:e0:9d:e2:2b:3f:fa:19:e4:61:1a:
                    e4:c7:68:66:43:a1:05:15:24:c4:09:3b:5d:b4:3a:
                    f8:87:d4:d8:80:cf:6c:ed:fa:b1:b7:7d:2b:68:ca:
                    3a:26:a6:49:1e:e7:27:fc:4f:89:7b:19:ce:8d:c9:
                    9d:cd:55:63:72:29:b1:2b:1b:35:a4:07:32:4f:13:
                    f1:bd:03:1f:b4:fc:f0:05:c4:9e:b0:c8:72:37:2c:
                    0c:82:bc:d4:a7:87:d3:33:10:f3:80:fe:bf:61:1b:
                    5e:c0:5b:c0:09:3d:db:c0:9d:91:92:c4:7c:7a:eb:
                    ec:b0:8e:69:a1:47:66:53:02:51:55:90:d1:e2:9a:
                    86:70:7b:63:d4:b9:03:18:c8:01:69:c6:e9:63:bc:
                    2b:b5:75:dc:03:5f:ef:b2:d3:3a:c8:db:3c:b6:3d:
                    59:91:fc:7d:96:bf:43:97:5a:40:d6:f2:f8:82:44:
                    fb:9d:36:47:3f:3a:33:43:6d:9c:44:ba:60:1a:9d:
                    77:02:44:14:d0:73:99:53:6d:ef:70:34:0b:11:b1:
                    16:c3:c9:4b:41:66:64:4c:88:fe:12:8f:3d:4f:29:
                    2f:b3:e8:15:8b:26:5a:ba:f9:fc:6b:ec:9d:8a:d9:
                    65:17:de:e5:ce:a7:84:1b:1e:f1:ad:32:b3:78:15:
                    7a:08:e3:93:9e:e5:eb:3c:33:9e:d5:2a:21:20:62:
                    90:c7:d8:3e:d4:1e:0f:06:20:01:6e:22:a4:67:de:
                    68:f0:b9
                Exponent: 65537 (0x10001)
        X509v3 extensions:
            X509v3 Basic Constraints: 
                CA:FALSE
            X509v3 Key Usage: 
                Digital Signature, Non Repudiation, Key Encipherment
            X509v3 Subject Key Identifier: 
                91:03:3F:14:E3:BD:43:98:B2:D4:7F:46:C2:A7:B7:BB:0F:74:99:F3
    Signature Algorithm: sha1WithRSAEncryption
         27:3f:d8:cb:68:c8:ef:35:ed:a0:50:d7:58:60:77:48:76:45:
         7a:2c:20:22:81:62:e3:e2:0d:10:48:d7:74:23:95:76:fb:78:
         c3:98:d2:39:13:13:7f:2a:38:dc:2a:80:ba:33:0a:51:d6:9e:
         0c:44:04:84:f0:ae:20:1e:e6:e8:89:09:cd:87:66:1b:80:21:
         e7:bc:03:e0:c7:15:19:23:b7:05:0b:f9:64:50:b6:6f:7d:14:
         68:96:bb:4d:d6:c0:29:7f:e3:a1:48:c4:ad:6f:a7:bf:d2:63:
         de:b7:fa:4f:8c:5e:ad:8e:c8:7e:4f:a4:9a:95:71:29:10:64:
         78:a0:55:ac:ec:9a:f0:27:03:2e:c4:ec:fb:4f:d2:a0:7e:98:
         90:88:30:02:45:07:10:d5:ad:f6:a8:e7:01:6c:87:c7:2e:0d:
         d1:35:3a:e6:b0:e9:19:c9:c9:f7:ce:5e:77:d1:50:84:8a:c3:
         d1:f1:56:2d:6e:65:0d:6f:e2:a0:c5:0e:48:82:6e:da:37:42:
         fa:cf:5d:92:84:3a:67:bd:41:28:19:b8:81:1c:c3:eb:00:f0:
         b0:a9:59:17:79:87:4b:d9:4f:e8:cf:30:76:42:55:9c:57:00:
         d1:b2:2e:19:59:31:24:c2:9c:fa:c1:0b:54:56:a5:29:19:fd:
         14:82:c0:3f:a8:d1:a1:c9:6d:1e:f4:11:89:50:58:4f:8d:8a:
         f8:f2:47:29:8c:a8:2d:21:1b:9b:ef:c6:1f:63:90:85:f1:c7:
         d0:40:a0:53:29:9b:49:6a:73:38:d2:25:95:f7:52:2f:a0:24:
         1c:af:f1:f9:6e:78:d3:81:03:cd:3d:91:b0:99:45:fb:87:39:
         6e:b3:7c:fb:f7:60:01:86:71:40:5f:85:8b:7e:fb:cf:95:df:
         76:cc:7b:2c:06:d9:a5:cf:4d:f7:62:ab:57:2c:da:83:6e:34:
         bc:bd:d8:d1:d4:5f:1b:94:78:c0:d3:b1:8c:82:d7:b1:f5:2c:
         e5:30:bf:59:3e:d2:1f:a4:8e:0b:0c:d6:d1:fd:08:24:2c:31:
         cb:b0:e6:36:3f:d7:b0:46:99:e1:48:18:8f:9f:42:fd:44:cb:
         6d:cc:b3:07:3b:7c:eb:44:d2:b4:52:12:2a:ba:c3:cb:f8:04:
         65:02:27:61:b9:35:9c:0d:0b:70:a1:d4:e7:c8:49:91:37:03:
         9e:8f:6e:a5:91:e8:6e:5e:ec:c4:17:4c:f6:dd:93:11:9d:40:
         ad:e2:3c:05:dc:22:ff:1a:04:d7:b0:d4:a4:c0:03:e3:ba:4c:
         5e:b3:7a:bc:08:73:52:92:42:ab:7a:85:e1:64:e1:4e:b5:63:
         98:a9:b1:fb:23:61:1e:d5
-----BEGIN CERTIFICATE-----
MIIFBTCCAu2gAwIBAgIBCTANBgkqhkiG9w0BAQUFADAqMRswGQYDVQQDDBJoeDUw
OSBUZXN0IFJvb3QgQ0ExCzAJBgNVBAYTAlNFMB4XDTE5MDUyMzE1MDUxN1oXDTM4
MDExNjE1MDUxN1owJzELMAkGA1UEBhMCU0UxGDAWBgNVBAMMD3d3dy50ZXN0Lmg1
bC5zZTCCAiIwDQYJKoZIhvcNAQEBBQADggIPADCCAgoCggIBALVY6ests3yUt6II
7P1QwmGkNcjrrdaTTFCareCaAK5O7+1e79nLmKZeZX+mOMDuF0iQgExscXoRrxEi
Gxcs28LMLNAO3uqVatBCu7Ch63ye8Chk3UR/yPbVSOSAvvdYGNbUV3oJBz8j2ABT
hA9y6Q2ouUlXgPQAnJIWvafqEoGWWUiL/7mLnWjmfA37yFfMumpMV8zk66/MbjiA
5keg8uQJOXn7QsQpso3xj7lFH0fC6DCEpef6fN/wB4ke/W+lHYhXTna/kcc5rIdv
sCkLwASJlZqKs0oiY3wm4ur85fhDtWdQD5ngneIrP/oZ5GEa5MdoZkOhBRUkxAk7
XbQ6+IfU2IDPbO36sbd9K2jKOiamSR7nJ/xPiXsZzo3Jnc1VY3IpsSsbNaQHMk8T
8b0DH7T88AXEnrDIcjcsDIK81KeH0zMQ84D+v2EbXsBbwAk928CdkZLEfHrr7LCO
aaFHZlMCUVWQ0eKahnB7Y9S5AxjIAWnG6WO8K7V13ANf77LTOsjbPLY9WZH8fZa/
Q5daQNby+IJE+502Rz86M0NtnES6YBqddwJEFNBzmVNt73A0CxGxFsPJS0FmZEyI
/hKPPU8pL7PoFYsmWrr5/GvsnYrZZRfe5c6nhBse8a0ys3gVegjjk57l6zwzntUq
ISBikMfYPtQeDwYgAW4ipGfeaPC5AgMBAAGjOTA3MAkGA1UdEwQCMAAwCwYDVR0P
BAQDAgXgMB0GA1UdDgQWBBSRAz8U471DmLLUf0bCp7e7D3SZ8zANBgkqhkiG9w0B
AQUFAAOCAgEAJz/Yy2jI7zXtoFDXWGB3SHZFeiwgIoFi4+INEEjXdCOVdvt4w5jS
ORMTfyo43CqAujMKUdaeDEQEhPCuIB7m6IkJzYdmG4Ah57wD4McVGSO3BQv5ZFC2
b30UaJa7TdbAKX/joUjErW+nv9Jj3rf6T4xerY7Ifk+kmpVxKRBkeKBVrOya8CcD
LsTs+0/SoH6YkIgwAkUHENWt9qjnAWyHxy4N0TU65rDpGcnJ985ed9FQhIrD0fFW
LW5lDW/ioMUOSIJu2jdC+s9dkoQ6Z71BKBm4gRzD6wDwsKlZF3mHS9lP6M8wdkJV
nFcA0bIuGVkxJMKc+sELVFalKRn9FILAP6jRocltHvQRiVBYT42K+PJHKYyoLSEb
m+/GH2OQhfHH0ECgUymbSWpzONIllfdSL6AkHK/x+W5404EDzT2RsJlF+4c5brN8
+/dgAYZxQF+Fi377z5Xfdsx7LAbZpc9N92KrVyzag240vL3Y0dRfG5R4wNOxjILX
sfUs5TC/WT7SH6SOCwzW0f0IJCwxy7DmNj/XsEaZ4UgYj59C/UTLbcyzBzt860TS
tFISKrrDy/gEZQInYbk1nA0LcKHU58hJkTcDno9upZHobl7sxBdM9t2TEZ1AreI8
Bdwi/xoE17DUpMAD47pMXrN6vAhzUpJCq3qF4WThTrVjmKmx+yNhHtU=
-----END CERTIFICATE-----
