Certificate:
    Data:
        Version: 3 (0x2)
        Serial Number: 8 (0x8)
    Signature Algorithm: sha1WithRSAEncryption
        Issuer: CN=hx509 Test Root CA, C=SE
        Validity
            Not Before: May 23 15:05:16 2019 GMT
            Not After : Jan 16 15:05:16 2038 GMT
        Subject: C=SE, CN=kdc
        Subject Public Key Info:
            Public Key Algorithm: rsaEncryption
                Public-Key: (4096 bit)
                Modulus:
                    00:ab:f2:c2:da:bb:d1:bc:5a:96:c0:76:11:4e:7a:
                    52:49:8b:84:ae:ca:44:4c:5b:30:ad:9a:6d:94:5b:
                    1a:52:3f:d5:9b:d9:62:4b:96:51:bd:e3:55:be:5b:
                    09:65:7b:3a:3b:2a:1f:9b:a2:95:e5:a6:f6:85:1f:
                    7b:35:b8:2c:55:14:19:13:91:bd:56:6e:5b:f7:49:
                    03:a8:53:01:16:27:53:8e:3e:71:1d:9c:dc:38:30:
                    38:c2:55:e3:58:15:bb:de:53:8d:2a:5f:68:b0:49:
                    e4:7f:dc:38:57:fe:89:1b:6f:5d:52:fc:fd:cc:ef:
                    37:71:e6:70:13:3f:24:5a:a2:8d:b5:a4:90:4a:2a:
                    0e:e0:c2:6f:4d:0e:ef:ab:c9:2f:90:0a:ee:20:e8:
                    be:6b:bb:4e:43:8b:56:9f:50:aa:e0:71:2b:0f:2b:
                    b6:68:d6:11:c0:c4:31:b0:ab:32:a1:2e:93:54:6d:
                    ab:d3:c1:84:4f:c3:fc:10:a5:fa:6a:ae:8c:80:05:
                    7c:54:4c:c1:aa:bc:50:ec:3c:19:9e:aa:df:82:0c:
                    e7:6e:ed:c9:f4:46:3e:60:6b:81:d9:b3:d7:64:19:
                    5f:64:bc:b5:a6:f6:38:03:02:ab:f2:b3:ba:2f:4f:
                    be:e3:c3:34:cb:d8:01:42:3d:43:81:9d:a9:4f:5e:
                    6f:14:d1:84:05:b6:f3:f0:9b:fa:b5:e8:1f:e6:40:
                    e2:b9:ce:a9:eb:1c:c4:da:85:b2:6b:b1:c7:a5:91:
                    0f:a0:79:7a:85:b2:b4:b5:4e:a6:8c:cd:c6:45:5c:
                    97:d2:e8:3c:01:2a:77:b2:e1:a7:2f:ed:2c:bf:42:
                    77:94:a4:47:bf:c7:58:43:14:08:66:4e:5d:24:99:
                    bd:5f:0d:e1:b1:56:f1:c3:db:97:f6:b5:22:92:23:
                    eb:a5:f5:49:4d:76:80:4a:83:af:a8:17:31:38:b6:
                    3b:49:1e:37:5e:fb:e7:9e:90:1d:8c:b0:8a:c2:dd:
                    5e:1d:1c:2f:c4:71:aa:d2:2b:c5:16:09:f1:5d:63:
                    7c:02:dc:b6:e0:b9:f6:2b:a1:56:1b:20:8f:13:c4:
                    60:d0:21:c9:91:a4:43:de:f9:64:d8:4a:5c:4a:cd:
                    51:87:66:55:ec:9c:2d:10:b3:23:6e:0e:48:44:2b:
                    86:01:73:2e:77:28:5b:6e:43:09:ea:0f:cc:0e:da:
                    da:88:f9:ef:6b:37:48:bd:e4:47:4a:4f:f9:72:bd:
                    b9:c4:a0:bc:67:29:ec:5a:55:22:b6:8e:f0:23:9f:
                    c1:fb:86:9c:18:59:43:4c:eb:b6:bd:2e:18:fb:44:
                    ae:27:15:e7:3d:6d:9a:c7:6f:61:99:e1:7a:80:de:
                    64:a8:e7
                Exponent: 65537 (0x10001)
        X509v3 extensions:
            X509v3 Basic Constraints: 
                CA:FALSE
            X509v3 Key Usage: 
                Digital Signature, Non Repudiation, Key Encipherment
            X509v3 Extended Key Usage: 
                Signing KDC Response
            X509v3 Subject Key Identifier: 
                E6:0A:BC:C8:0C:58:A4:53:82:C7:15:E0:42:D6:73:67:26:2C:39:D1
            X509v3 Subject Alternative Name: 
                othername:<unsupported>
    Signature Algorithm: sha1WithRSAEncryption
         31:6b:88:4f:57:8a:4b:7b:25:d8:53:0f:04:e9:52:a7:e3:93:
         12:ed:bc:96:03:c3:ae:53:6a:10:60:76:18:85:1d:9c:b6:93:
         d8:92:d1:d8:e5:af:23:d6:64:93:11:f3:23:8e:ed:43:12:dc:
         5d:1b:d5:49:b8:3d:fd:e7:52:58:a9:26:2c:cb:49:09:d4:54:
         6e:e6:45:c9:1c:3f:50:b9:f3:13:65:84:45:a7:1c:23:48:ad:
         93:c0:f9:b2:fa:1e:25:d0:40:d5:8f:7a:c8:8c:72:ba:88:22:
         19:a7:3a:08:cf:7d:9c:45:da:3e:12:64:3f:b4:e0:c4:36:97:
         a9:be:ef:e2:4a:1a:cc:c7:f9:8f:4f:30:04:11:f4:16:cf:ff:
         6e:85:f1:cf:98:3d:09:e9:f1:98:30:ff:a2:3c:d5:96:50:3d:
         cb:21:db:89:56:8c:f4:a6:87:e3:78:44:49:c5:53:c9:19:a1:
         ff:a0:0d:4e:a7:89:d9:11:52:39:21:b4:b9:21:e8:af:39:9e:
         2c:41:3d:82:3e:20:b8:60:8a:b6:de:d6:6c:f3:b7:5a:10:ce:
         ba:92:a7:6a:0d:5f:22:e6:98:e4:2c:d7:2d:7a:d4:22:bd:15:
         ce:2c:79:7f:d6:d0:78:f8:d9:a6:e7:87:84:cb:0b:8b:1e:aa:
         0c:57:4b:8c:3a:a9:e5:66:92:eb:00:b2:2c:05:1f:14:ab:23:
         7a:61:b0:00:02:bf:24:42:8e:0e:1d:52:20:11:93:94:b5:2a:
         56:33:f4:bb:63:21:ea:64:cf:d2:92:8c:70:7e:b5:f9:4a:c2:
         aa:a5:81:36:bb:76:cb:ec:98:bb:3c:8c:67:1a:0c:3e:97:f1:
         4c:dc:25:e2:59:a2:6d:fd:db:54:ea:9b:14:5f:18:dc:2c:e1:
         45:89:27:a0:b7:f0:09:57:94:b5:dd:9e:84:51:35:98:12:c7:
         20:ad:75:4d:42:54:44:30:e2:b9:cb:25:0f:e0:a9:6d:d5:6d:
         7a:97:b6:fe:b7:54:4e:83:ed:bb:4d:d3:80:99:2b:1b:ee:a1:
         3b:b8:69:52:64:f7:d2:bc:2f:18:73:d6:8d:04:54:c1:3f:14:
         05:65:fb:cf:c2:38:25:92:33:cc:f1:48:cf:e5:d1:a6:c2:57:
         1d:06:d8:1d:a1:0d:d6:e6:8e:ba:b6:d6:88:3c:a7:87:02:bb:
         32:47:82:aa:d6:5f:8a:69:d8:5e:38:99:a6:1d:09:a8:d5:b8:
         4c:80:23:ed:83:67:5f:b8:8e:f2:c4:8f:8b:76:b6:a2:09:b5:
         44:1c:70:d2:5b:61:cb:c6:68:f9:9b:93:72:5a:bc:08:98:80:
         90:64:a7:d3:a1:f8:ee:b7
-----BEGIN CERTIFICATE-----
MIIFWTCCA0GgAwIBAgIBCDANBgkqhkiG9w0BAQUFADAqMRswGQYDVQQDDBJoeDUw
OSBUZXN0IFJvb3QgQ0ExCzAJBgNVBAYTAlNFMB4XDTE5MDUyMzE1MDUxNloXDTM4
MDExNjE1MDUxNlowGzELMAkGA1UEBhMCU0UxDDAKBgNVBAMMA2tkYzCCAiIwDQYJ
KoZIhvcNAQEBBQADggIPADCCAgoCggIBAKvywtq70bxalsB2EU56UkmLhK7KRExb
MK2abZRbGlI/1ZvZYkuWUb3jVb5bCWV7OjsqH5uileWm9oUfezW4LFUUGRORvVZu
W/dJA6hTARYnU44+cR2c3DgwOMJV41gVu95TjSpfaLBJ5H/cOFf+iRtvXVL8/czv
N3HmcBM/JFqijbWkkEoqDuDCb00O76vJL5AK7iDovmu7TkOLVp9QquBxKw8rtmjW
EcDEMbCrMqEuk1Rtq9PBhE/D/BCl+mqujIAFfFRMwaq8UOw8GZ6q34IM527tyfRG
PmBrgdmz12QZX2S8tab2OAMCq/Kzui9PvuPDNMvYAUI9Q4GdqU9ebxTRhAW28/Cb
+rXoH+ZA4rnOqescxNqFsmuxx6WRD6B5eoWytLVOpozNxkVcl9LoPAEqd7Lhpy/t
LL9Cd5SkR7/HWEMUCGZOXSSZvV8N4bFW8cPbl/a1IpIj66X1SU12gEqDr6gXMTi2
O0keN177556QHYywisLdXh0cL8RxqtIrxRYJ8V1jfALctuC59iuhVhsgjxPEYNAh
yZGkQ975ZNhKXErNUYdmVeycLRCzI24OSEQrhgFzLncoW25DCeoPzA7a2oj572s3
SL3kR0pP+XK9ucSgvGcp7FpVIraO8COfwfuGnBhZQ0zrtr0uGPtEricV5z1tmsdv
YZnheoDeZKjnAgMBAAGjgZgwgZUwCQYDVR0TBAIwADALBgNVHQ8EBAMCBeAwEgYD
VR0lBAswCQYHKwYBBQIDBTAdBgNVHQ4EFgQU5gq8yAxYpFOCxxXgQtZzZyYsOdEw
SAYDVR0RBEEwP6A9BgYrBgEFAgKgMzAxoA0bC1RFU1QuSDVMLlNFoSAwHqADAgEB
oRcwFRsGa3JidGd0GwtURVNULkg1TC5TRTANBgkqhkiG9w0BAQUFAAOCAgEAMWuI
T1eKS3sl2FMPBOlSp+OTEu28lgPDrlNqEGB2GIUdnLaT2JLR2OWvI9ZkkxHzI47t
QxLcXRvVSbg9/edSWKkmLMtJCdRUbuZFyRw/ULnzE2WERaccI0itk8D5svoeJdBA
1Y96yIxyuogiGac6CM99nEXaPhJkP7TgxDaXqb7v4koazMf5j08wBBH0Fs//boXx
z5g9CenxmDD/ojzVllA9yyHbiVaM9KaH43hEScVTyRmh/6ANTqeJ2RFSOSG0uSHo
rzmeLEE9gj4guGCKtt7WbPO3WhDOupKnag1fIuaY5CzXLXrUIr0Vzix5f9bQePjZ
pueHhMsLix6qDFdLjDqp5WaS6wCyLAUfFKsjemGwAAK/JEKODh1SIBGTlLUqVjP0
u2Mh6mTP0pKMcH61+UrCqqWBNrt2y+yYuzyMZxoMPpfxTNwl4lmibf3bVOqbFF8Y
3CzhRYknoLfwCVeUtd2ehFE1mBLHIK11TUJURDDiucslD+CpbdVtepe2/rdUToPt
u03TgJkrG+6hO7hpUmT30rwvGHPWjQRUwT8UBWX7z8I4JZIzzPFIz+XRpsJXHQbY
HaEN1uaOurbWiDynhwK7MkeCqtZfimnYXjiZph0JqNW4TIAj7YNnX7iO8sSPi3a2
ogm1RBxw0lthy8Zo+ZuTclq8CJiAkGSn06H47rc=
-----END CERTIFICATE-----
