Certificate:
    Data:
        Version: 3 (0x2)
        Serial Number: 1 (0x1)
    Signature Algorithm: sha1WithRSAEncryption
        Issuer: CN=hx509 Test Root CA, C=SE
        Validity
            Not Before: May 23 15:05:11 2019 GMT
            Not After : Jan 16 15:05:11 2038 GMT
        Subject: C=SE, CN=OCSP responder
        Subject Public Key Info:
            Public Key Algorithm: rsaEncryption
                Public-Key: (4096 bit)
                Modulus:
                    00:a0:76:7e:fa:ce:3d:80:e7:2a:c4:1f:02:27:f1:
                    4d:72:1f:78:57:3f:30:9d:06:2f:d4:3e:64:15:a2:
                    16:78:de:9d:f9:db:81:b2:96:50:b4:e8:3b:c1:bd:
                    6f:80:00:4a:3b:b7:ef:5e:8f:20:dd:1d:6e:36:8f:
                    e4:05:66:c7:17:7f:ad:5d:e1:1a:a1:fa:5e:d2:84:
                    24:fa:00:46:26:8b:e8:68:ed:c0:86:3c:45:f5:64:
                    0f:3b:00:cb:cb:3f:45:3d:98:11:f3:cc:de:e2:cb:
                    e5:b5:91:59:43:99:41:86:79:75:a2:42:4e:5e:16:
                    7a:f3:0f:ec:e4:c0:e2:9d:b5:cf:9b:a9:ea:97:70:
                    7a:20:20:8c:30:56:4b:16:29:04:d5:c6:6e:ad:14:
                    73:2d:cf:23:a5:38:11:5d:c9:bd:9d:57:f3:1a:c9:
                    ff:16:64:97:d5:60:0c:08:2b:1f:a9:99:3b:5c:ac:
                    b2:d7:3e:d5:f3:32:62:6e:20:8a:c2:74:29:6e:aa:
                    35:72:1b:25:dd:d1:33:94:1e:87:e8:51:9b:35:45:
                    62:19:70:b7:d7:a7:64:48:02:08:74:c3:aa:2b:21:
                    f6:bc:3c:b4:74:b7:25:7a:41:23:1a:5e:e3:1b:0f:
                    1c:cd:98:d0:1a:d3:f6:7a:4a:fb:78:cf:85:6d:02:
                    c4:e6:be:c7:4d:ba:90:59:c2:33:13:5e:3e:89:3c:
                    76:9f:bb:68:03:cb:26:e6:bf:fa:fd:8b:54:42:69:
                    c9:12:e8:57:e3:2d:72:f5:be:7b:35:b4:60:9a:a7:
                    3d:29:9f:e6:f5:38:5a:96:36:72:ad:d8:9e:26:0c:
                    d0:2a:58:34:8a:dc:75:ef:ad:a5:f2:36:68:b0:6a:
                    1c:8e:c3:9f:43:09:5c:53:48:16:6e:58:4c:46:1e:
                    a6:d0:d8:de:7a:85:d0:59:cb:10:e6:86:5e:a4:71:
                    d5:8e:8b:4e:d9:a5:8a:8e:91:30:23:fc:22:35:fc:
                    78:8b:aa:66:2b:e2:f0:2f:c9:72:ee:ab:ec:a9:0f:
                    1c:ad:7a:15:f3:dc:7d:db:39:bd:e1:ee:88:de:04:
                    5f:43:d4:3d:7a:1b:f8:b9:9e:38:6b:06:8d:04:28:
                    5a:93:8b:2d:16:03:99:ac:60:a5:40:c3:94:10:0f:
                    87:0d:3b:db:74:59:fa:c2:5f:f7:ef:2c:87:29:f0:
                    76:7e:50:29:86:5c:cc:7b:89:6b:11:e3:b2:9b:aa:
                    9d:36:58:d1:89:ad:77:53:9f:e3:85:89:65:29:6f:
                    d8:f7:79:68:49:c6:09:97:e5:fa:a2:79:23:b7:48:
                    c7:da:98:ea:ba:bc:16:9b:3c:ca:71:0c:6a:10:08:
                    df:ef:1b
                Exponent: 65537 (0x10001)
        X509v3 extensions:
            X509v3 Basic Constraints: 
                CA:FALSE
            X509v3 Key Usage: 
                Digital Signature, Non Repudiation, Key Encipherment
            X509v3 Extended Key Usage: 
                OCSP No Check, OCSP Signing
            X509v3 Subject Key Identifier: 
                D4:A0:90:A6:79:F7:F8:6A:CE:29:92:37:2D:36:32:22:B5:41:75:45
    Signature Algorithm: sha1WithRSAEncryption
         1c:37:c2:22:e7:c3:1e:f9:b5:7a:9b:ee:fe:bc:15:89:cb:34:
         59:2c:b9:c5:e1:c6:56:3a:da:6a:6b:08:df:f4:69:3c:5d:62:
         4d:b9:e2:65:8f:23:48:30:8b:9a:a3:55:7b:8a:4b:d2:ab:8b:
         85:31:78:09:45:2d:9b:fc:59:ad:67:0b:ef:20:b5:70:23:71:
         21:26:d2:e1:c4:4c:54:8f:02:1e:84:35:ff:7b:67:90:05:7c:
         25:2e:ca:13:a4:32:ba:0a:9a:aa:6b:79:53:81:6b:3b:95:fe:
         17:51:57:89:71:22:6b:3e:15:06:6f:1c:d6:8a:9c:e1:49:67:
         4b:3f:4e:f5:2b:b3:8f:89:5b:f7:c9:94:78:02:b7:f9:db:c3:
         b9:2f:b9:17:9b:0c:ba:e2:ab:49:e7:5f:0d:85:ef:4b:35:f2:
         39:e7:4c:ef:6a:88:81:99:7e:a7:8c:b1:f7:d9:ec:fd:70:92:
         8d:12:1d:22:49:3e:ef:62:54:92:34:e7:67:27:a1:5c:38:d5:
         1e:b8:95:c2:9b:12:95:4f:8c:64:d6:c5:06:a6:bf:19:fe:c3:
         b7:fd:68:d7:7f:f2:7d:7f:aa:4f:71:7a:78:c2:af:b6:6a:5a:
         56:cf:5a:99:82:4b:39:d3:83:03:07:b9:7b:35:31:6c:ac:4c:
         c6:8c:46:dc:d3:4c:57:3d:01:6d:5e:76:94:53:9c:ba:e8:42:
         d9:8b:2e:88:4d:9a:8f:12:c7:2b:cc:e2:f9:9f:1d:b1:5f:55:
         bb:15:4e:e6:f5:bc:7d:03:a1:00:47:b0:1f:26:0e:58:64:24:
         a8:ef:96:51:d5:66:cc:4b:0d:0b:37:16:33:ef:d3:a6:c2:05:
         e1:6c:38:b6:21:f2:c3:0f:3e:65:d0:6a:0f:37:4b:c5:db:01:
         0a:ce:f7:c5:e1:4e:3f:55:aa:8a:51:23:7b:66:59:ab:20:64:
         7a:0d:bd:dc:cb:79:46:0b:57:51:cf:6f:37:94:03:96:19:a5:
         61:e4:a8:4d:7c:84:0b:b8:79:ba:22:8c:e0:67:0f:8c:ff:44:
         02:3b:a2:54:6e:3f:f9:a6:d0:46:b3:ed:e1:d1:18:16:ea:4a:
         56:b5:9b:a0:b6:ab:40:2e:6b:c4:8d:7f:75:c9:92:b6:ed:31:
         92:1a:24:94:c7:67:16:fe:6d:9b:d1:f8:2b:25:9d:34:a6:18:
         21:8f:33:5c:9b:81:31:69:c6:f4:b3:f2:51:2e:7d:17:96:50:
         33:07:f6:f7:1d:df:62:bf:29:a7:da:8e:15:e2:62:83:36:a5:
         77:17:f7:29:11:0d:cf:8f:e0:97:b7:24:6c:b6:64:78:8d:e7:
         f6:97:d0:1a:3d:ea:38:4f
-----BEGIN CERTIFICATE-----
MIIFJDCCAwygAwIBAgIBATANBgkqhkiG9w0BAQUFADAqMRswGQYDVQQDDBJoeDUw
OSBUZXN0IFJvb3QgQ0ExCzAJBgNVBAYTAlNFMB4XDTE5MDUyMzE1MDUxMVoXDTM4
MDExNjE1MDUxMVowJjELMAkGA1UEBhMCU0UxFzAVBgNVBAMMDk9DU1AgcmVzcG9u
ZGVyMIICIjANBgkqhkiG9w0BAQEFAAOCAg8AMIICCgKCAgEAoHZ++s49gOcqxB8C
J/FNch94Vz8wnQYv1D5kFaIWeN6d+duBspZQtOg7wb1vgABKO7fvXo8g3R1uNo/k
BWbHF3+tXeEaofpe0oQk+gBGJovoaO3AhjxF9WQPOwDLyz9FPZgR88ze4svltZFZ
Q5lBhnl1okJOXhZ68w/s5MDinbXPm6nql3B6ICCMMFZLFikE1cZurRRzLc8jpTgR
Xcm9nVfzGsn/FmSX1WAMCCsfqZk7XKyy1z7V8zJibiCKwnQpbqo1chsl3dEzlB6H
6FGbNUViGXC316dkSAIIdMOqKyH2vDy0dLclekEjGl7jGw8czZjQGtP2ekr7eM+F
bQLE5r7HTbqQWcIzE14+iTx2n7toA8sm5r/6/YtUQmnJEuhX4y1y9b57NbRgmqc9
KZ/m9ThaljZyrdieJgzQKlg0itx1762l8jZosGocjsOfQwlcU0gWblhMRh6m0Nje
eoXQWcsQ5oZepHHVjotO2aWKjpEwI/wiNfx4i6pmK+LwL8ly7qvsqQ8crXoV89x9
2zm94e6I3gRfQ9Q9ehv4uZ44awaNBChak4stFgOZrGClQMOUEA+HDTvbdFn6wl/3
7yyHKfB2flAphlzMe4lrEeOym6qdNljRia13U5/jhYllKW/Y93loScYJl+X6onkj
t0jH2pjqurwWmzzKcQxqEAjf7xsCAwEAAaNZMFcwCQYDVR0TBAIwADALBgNVHQ8E
BAMCBeAwHgYDVR0lBBcwFQYJKwYBBQUHMAEFBggrBgEFBQcDCTAdBgNVHQ4EFgQU
1KCQpnn3+GrOKZI3LTYyIrVBdUUwDQYJKoZIhvcNAQEFBQADggIBABw3wiLnwx75
tXqb7v68FYnLNFksucXhxlY62mprCN/0aTxdYk254mWPI0gwi5qjVXuKS9Kri4Ux
eAlFLZv8Wa1nC+8gtXAjcSEm0uHETFSPAh6ENf97Z5AFfCUuyhOkMroKmqpreVOB
azuV/hdRV4lxIms+FQZvHNaKnOFJZ0s/TvUrs4+JW/fJlHgCt/nbw7kvuRebDLri
q0nnXw2F70s18jnnTO9qiIGZfqeMsffZ7P1wko0SHSJJPu9iVJI052cnoVw41R64
lcKbEpVPjGTWxQamvxn+w7f9aNd/8n1/qk9xenjCr7ZqWlbPWpmCSznTgwMHuXs1
MWysTMaMRtzTTFc9AW1edpRTnLroQtmLLohNmo8SxyvM4vmfHbFfVbsVTub1vH0D
oQBHsB8mDlhkJKjvllHVZsxLDQs3FjPv06bCBeFsOLYh8sMPPmXQag83S8XbAQrO
98XhTj9VqopRI3tmWasgZHoNvdzLeUYLV1HPbzeUA5YZpWHkqE18hAu4eboijOBn
D4z/RAI7olRuP/mm0Eaz7eHRGBbqSla1m6C2q0Aua8SNf3XJkrbtMZIaJJTHZxb+
bZvR+CslnTSmGCGPM1ybgTFpxvSz8lEufReWUDMH9vcd32K/KafajhXiYoM2pXcX
9ykRDc+P4Je3JGy2ZHiN5/aX0Bo96jhP
-----END CERTIFICATE-----
