-----BEGIN CERTIFICATE-----
MIIFNjCCAx6gAwIBAgIJAJd7zCsMMPvCMA0GCSqGSIb3DQEBCwUAMB4xCzAJBgNV
BAYTAlNFMQ8wDQYDVQQDDAZwa2luaXQwHhcNMTkwNTIzMTUwNTE1WhcNMzgwMTE2
MTUwNTE1WjA1MQswCQYDVQQGEwJTRTEPMA0GA1UEAwwGcGtpbml0MRUwEwYDVQQD
DAxwa2luaXQtcHJveHkwggIiMA0GCSqGSIb3DQEBAQUAA4ICDwAwggIKAoICAQCh
U0hTlQYhDONlH8153Wn2/H6/OW15S9pvg/RcQ9+Mc7a3kOEnImHt4B/zevv1rfYa
EernC2mrTxvSSy2Oxx3yNFsV1Kys+kMYiIygswPohTHYhMQKEjqGPTN97E1JcvMQ
iZy19sl6tG+kLZKa5pSTUoFrlqw2NN9U1WjlgaZ7WnLxwLlatQnZOnA6+MoU1bJe
pkPUAcjOOQZTd2D/3tAOcBKfQ6z97XFqfxzcnclz+9BXgFdZWTR1efd5yYNy17ny
8hoEHuc34+a/hrrhfiFiXYKFF6f07YI6lt+ElPOc93oz19fE4wVskXjvxLOwahzM
q2jRalsj/XlYCEHrZqaYjHvY8MYNFleThQEwJ/zldgQjx2MMnUD3ApxRDutfYM9e
MFSv0ATDFoKi55mGySMD3dMpI1I/TER459Am5c88SfxJNJXAW/2GJXQAJ7tCL3dM
sYcqkl5uVZXPJxSQbfFCl95lhlzOtoXZTS1+cxYN0oz9YfLoG3tz3x5Xtxo0eUbI
NJBq1sWi6bO6+6GyQOxs45sawl906XFqW/qzSywNOOsT/hcuEvc4IGdZKLP/wxF0
HJzeaqDwfmiT1tz8jArGsbqw/i77xND6tq+56rur5/BhfIapXZ9wKDfawQttpDnX
PTcaT8BSqQejfZa0RiRvt70pypm98eZ1XRzWhC6bvQIDAQABo2AwXjAJBgNVHRME
AjAAMAsGA1UdDwQEAwIF4DAdBgNVHQ4EFgQUzoShaVViBQhilqB70YV+yuLcWIEw
JQYIKwYBBQUHAQ4BAf8EFjAUAgEAMA8GCCsGAQUFBxUABANmb28wDQYJKoZIhvcN
AQELBQADggIBAL45/vKz88cBG7c11gyePde86H7qWgIKrWocohn6eoXF1p2ZkLvP
na4o7WVr/WC7t4DiBZVUNVvrqss/nOI3wMVjU9Mn9wrJbycvrVPAWH1nIhlKR3gM
H8PTcZiHI+Vf14aHTjeRFEXxy0i+K7JxtKRQC/Bi+MuwnBvPwvar3tqFLXprRk4p
p42I7/ngT8WcAzz/LWj0rWYNl/TEFU3esDBr3rz+B5TFVcp2dLpcZW7ScFRh9bLT
OwJ/QNhzvnH5cwsWlb8cpDTFVeyTOBgqh9t6ut6SnDfCu03xIBVuCk+P5KhOGWAS
3cOVqvGn3Y3q1glE2XdKgyYqU2z3itneUyiCeopItFaKZIV52s4WuIuGO+PK8XOi
QhwtnsWO91toEFUpUNkxf/C6C61G4xuvHeMVLdTzO1Xi5kuHyN9gD8rLAuUfaV1c
Zv3f2S8WpvEGkSSu8Ap1k3ExfIaFhgxzu3pjGL5e6YV2lK9d/UGXOpDRFZOUuoRm
dyowQcF3XcH6zTDu+ThXlPSq5bkjrnMnNt2z2LfqGb/GFp1vl11LsXeLgpHmFTq2
4umDDUwMHVzrmFoa3BtUkgO3BUoSrt2l63TFqTQZgZAf/D042jBcmOhV6Mt5MsDK
MFZkoYjtv+8jTeRwxP2zi3EceCvGkV1Mf3t2/h4wYGa25J6HFq86VVRU
-----END CERTIFICATE-----
Certificate:
    Data:
        Version: 3 (0x2)
        Serial Number: 6 (0x6)
    Signature Algorithm: sha1WithRSAEncryption
        Issuer: CN=hx509 Test Root CA, C=SE
        Validity
            Not Before: May 23 15:05:15 2019 GMT
            Not After : Jan 16 15:05:15 2038 GMT
        Subject: C=SE, CN=pkinit
        Subject Public Key Info:
            Public Key Algorithm: rsaEncryption
                Public-Key: (4096 bit)
                Modulus:
                    00:bf:4b:44:8f:d1:dd:56:18:41:5c:c2:c4:2b:ff:
                    28:e6:7f:68:26:d4:0f:08:e6:af:dd:72:28:9b:ec:
                    5f:5a:2f:f1:9a:7b:21:0f:c2:01:96:d8:85:32:20:
                    5c:c7:91:fb:2d:71:33:d7:dc:81:06:32:2e:e5:ec:
                    61:37:8a:0b:0c:23:57:cd:9c:ae:93:79:58:26:1e:
                    de:26:18:12:52:c3:76:7a:d1:6a:dc:98:67:13:4d:
                    73:dc:8f:7f:7b:dc:97:15:dd:eb:6e:0b:54:cc:f7:
                    ef:db:14:8f:d2:89:47:3e:8c:e7:de:ef:61:34:67:
                    10:60:8a:87:13:6d:86:91:9d:8a:92:64:72:5c:ef:
                    64:57:b9:0e:91:ea:41:2c:03:e0:67:c7:51:cf:ea:
                    09:5a:e9:0e:ba:eb:be:53:10:90:e5:0f:87:33:3b:
                    e6:53:11:1c:6d:75:34:ea:4a:7c:59:f4:6b:da:82:
                    30:4d:f5:72:ad:ae:41:f7:c1:ca:b2:7e:74:a4:45:
                    bd:2d:80:c5:47:d3:ed:c2:02:fb:d9:85:76:00:3d:
                    a6:ab:da:2a:ef:a4:c7:d6:74:c4:88:02:63:d5:a0:
                    5f:6b:88:ee:bc:df:0f:43:78:8f:62:1a:c6:c8:e5:
                    3a:43:aa:75:94:d0:71:15:a4:8a:f9:67:5d:93:93:
                    bd:78:04:46:39:90:48:22:05:78:17:ec:b9:26:3f:
                    4f:7b:a9:e2:79:b3:cf:13:ce:34:9f:3c:7a:8f:a8:
                    b7:b4:12:39:01:4f:26:44:33:b9:7d:eb:c7:0d:c7:
                    1c:d3:c5:52:2b:cb:65:a2:48:b8:c6:b2:e5:17:d3:
                    df:ed:ef:e9:ea:21:5f:2e:42:23:40:35:7e:97:23:
                    28:42:0e:22:25:79:f6:ea:ae:a3:cf:c6:c4:ef:ed:
                    c3:1f:14:05:5f:66:ab:20:a0:5e:80:11:32:1f:ff:
                    69:10:e2:8e:d6:70:e4:97:ab:82:89:37:57:74:43:
                    81:e6:85:ca:6e:3b:1d:ae:3f:ca:7f:da:2b:7b:db:
                    ee:ab:ad:a1:a1:16:38:9c:b6:f2:af:be:b0:19:e1:
                    63:14:6f:26:24:f4:a8:3a:04:0e:9a:9c:5a:0a:bd:
                    22:91:c4:c3:ab:2f:ea:54:d7:ca:ad:ed:b7:a0:98:
                    8a:c8:94:15:ea:13:22:97:29:df:3a:85:4c:80:0d:
                    ee:3f:d0:66:3d:9c:0f:41:2b:fd:1e:90:f5:8a:fb:
                    4c:10:20:3b:91:cc:fc:ab:d8:89:ac:7a:9f:bc:c9:
                    e4:09:fe:81:ba:53:cf:f5:13:1b:4b:b0:f3:bf:34:
                    3d:3d:2c:8c:90:89:d6:37:78:cc:7c:f0:a8:97:08:
                    ac:ea:f5
                Exponent: 65537 (0x10001)
        X509v3 extensions:
            X509v3 Basic Constraints: 
                CA:FALSE
            X509v3 Key Usage: 
                Digital Signature, Non Repudiation, Key Encipherment
            X509v3 Subject Key Identifier: 
                76:9F:AA:4D:D1:1E:92:61:23:CE:AE:DC:C3:CD:07:EB:A7:13:43:2F
            X509v3 Subject Alternative Name: 
                othername:<unsupported>
    Signature Algorithm: sha1WithRSAEncryption
         3d:2f:62:54:90:6a:d1:f1:93:cc:21:b6:45:d2:d8:d3:ae:c8:
         c4:63:6d:9a:25:a1:c3:33:3a:c0:90:ea:ac:4b:67:a4:af:dd:
         75:3f:03:13:44:a9:7e:5a:9e:3b:6f:df:06:d0:6d:ae:bf:fc:
         bf:23:b0:5e:c9:1b:98:d1:e6:6c:20:83:48:2f:b1:8d:ef:c1:
         33:fd:d1:7f:d0:ca:03:9a:e4:3a:42:17:0d:e6:40:25:2f:f3:
         80:83:36:c4:cc:8e:4b:7b:90:9d:22:ca:83:c1:a3:d0:c9:13:
         af:b4:a6:d7:d9:3b:be:fd:d1:5a:da:71:f8:6e:18:c8:8e:82:
         d0:b8:a6:de:58:c8:9b:8f:c1:20:ab:81:a8:3b:29:81:2d:cb:
         a2:f3:b2:9b:81:7d:78:c6:55:ed:05:75:7f:4c:64:6b:fe:00:
         e7:2b:6e:17:d5:32:de:e1:1d:33:f6:ce:89:4b:c6:be:92:54:
         f7:16:ea:91:b7:af:46:80:41:8f:6c:47:d6:07:d7:62:34:1b:
         7c:69:e8:6c:ac:6f:39:b2:3c:60:cd:b3:89:95:3a:9e:ef:75:
         fa:b1:ad:b4:bc:89:69:1c:69:53:dd:94:25:93:7c:64:56:75:
         0a:a9:8d:2b:6d:ed:9c:e7:cf:9a:ad:02:ca:79:f4:fa:59:4e:
         51:33:c3:f9:4d:a6:35:62:50:e7:f3:2d:aa:32:b3:60:2f:1e:
         e3:71:6b:78:98:f7:9f:fe:0f:0f:f1:a5:6a:4f:f7:01:22:52:
         60:6b:62:b5:5b:15:6d:4f:41:e0:23:a0:43:45:39:70:f3:a0:
         bd:30:14:63:01:01:f4:1f:fb:65:43:c8:99:57:aa:47:2d:53:
         0c:f6:c2:65:f3:1a:64:69:67:f3:7b:b1:2f:0f:c1:e8:a2:5e:
         78:bd:df:a6:d8:3e:ce:6a:fc:bb:c6:14:a1:6b:de:fa:47:5d:
         ce:6a:24:60:da:1b:5d:fd:c1:5f:27:34:a2:b6:dc:bb:e5:f4:
         cb:14:88:e6:66:e7:49:e8:a0:22:49:da:af:1a:30:f6:ac:a7:
         99:56:5e:b4:b0:19:71:67:59:cd:0d:67:4b:82:54:0d:c9:88:
         cb:ea:36:7f:60:d5:df:8a:74:78:25:2a:b5:ca:89:ac:9a:0b:
         bc:a4:25:f9:38:c0:13:58:1b:5c:60:0a:b7:9c:74:de:b1:7b:
         e2:5e:1d:85:50:e0:69:22:c5:2f:e1:1a:1c:ca:cd:a7:ab:0d:
         a2:ce:f1:88:92:68:10:fa:1d:ca:f4:62:6d:cd:8b:1b:72:2f:
         67:a1:b6:f6:ef:b9:f1:e8:bd:42:54:d8:4b:e0:8b:9b:6d:2d:
         1c:ca:c3:eb:79:5c:d7:00
-----BEGIN CERTIFICATE-----
MIIFNjCCAx6gAwIBAgIBBjANBgkqhkiG9w0BAQUFADAqMRswGQYDVQQDDBJoeDUw
OSBUZXN0IFJvb3QgQ0ExCzAJBgNVBAYTAlNFMB4XDTE5MDUyMzE1MDUxNVoXDTM4
MDExNjE1MDUxNVowHjELMAkGA1UEBhMCU0UxDzANBgNVBAMMBnBraW5pdDCCAiIw
DQYJKoZIhvcNAQEBBQADggIPADCCAgoCggIBAL9LRI/R3VYYQVzCxCv/KOZ/aCbU
Dwjmr91yKJvsX1ov8Zp7IQ/CAZbYhTIgXMeR+y1xM9fcgQYyLuXsYTeKCwwjV82c
rpN5WCYe3iYYElLDdnrRatyYZxNNc9yPf3vclxXd624LVMz379sUj9KJRz6M597v
YTRnEGCKhxNthpGdipJkclzvZFe5DpHqQSwD4GfHUc/qCVrpDrrrvlMQkOUPhzM7
5lMRHG11NOpKfFn0a9qCME31cq2uQffByrJ+dKRFvS2AxUfT7cIC+9mFdgA9pqva
Ku+kx9Z0xIgCY9WgX2uI7rzfD0N4j2IaxsjlOkOqdZTQcRWkivlnXZOTvXgERjmQ
SCIFeBfsuSY/T3up4nmzzxPONJ88eo+ot7QSOQFPJkQzuX3rxw3HHNPFUivLZaJI
uMay5RfT3+3v6eohXy5CI0A1fpcjKEIOIiV59uquo8/GxO/twx8UBV9mqyCgXoAR
Mh//aRDijtZw5Jergok3V3RDgeaFym47Ha4/yn/aK3vb7qutoaEWOJy28q++sBnh
YxRvJiT0qDoEDpqcWgq9IpHEw6sv6lTXyq3tt6CYisiUFeoTIpcp3zqFTIAN7j/Q
Zj2cD0Er/R6Q9Yr7TBAgO5HM/KvYiax6n7zJ5An+gbpTz/UTG0uw8780PT0sjJCJ
1jd4zHzwqJcIrOr1AgMBAAGjczBxMAkGA1UdEwQCMAAwCwYDVR0PBAQDAgXgMB0G
A1UdDgQWBBR2n6pN0R6SYSPOrtzDzQfrpxNDLzA4BgNVHREEMTAvoC0GBisGAQUC
AqAjMCGgDRsLVEVTVC5INUwuU0WhEDAOoAMCAQGhBzAFGwNiYXIwDQYJKoZIhvcN
AQEFBQADggIBAD0vYlSQatHxk8whtkXS2NOuyMRjbZolocMzOsCQ6qxLZ6Sv3XU/
AxNEqX5anjtv3wbQba6//L8jsF7JG5jR5mwgg0gvsY3vwTP90X/QygOa5DpCFw3m
QCUv84CDNsTMjkt7kJ0iyoPBo9DJE6+0ptfZO7790VracfhuGMiOgtC4pt5YyJuP
wSCrgag7KYEty6LzspuBfXjGVe0FdX9MZGv+AOcrbhfVMt7hHTP2zolLxr6SVPcW
6pG3r0aAQY9sR9YH12I0G3xp6GysbzmyPGDNs4mVOp7vdfqxrbS8iWkcaVPdlCWT
fGRWdQqpjStt7Zznz5qtAsp59PpZTlEzw/lNpjViUOfzLaoys2AvHuNxa3iY95/+
Dw/xpWpP9wEiUmBrYrVbFW1PQeAjoENFOXDzoL0wFGMBAfQf+2VDyJlXqkctUwz2
wmXzGmRpZ/N7sS8PweiiXni936bYPs5q/LvGFKFr3vpHXc5qJGDaG139wV8nNKK2
3Lvl9MsUiOZm50nooCJJ2q8aMPasp5lWXrSwGXFnWc0NZ0uCVA3JiMvqNn9g1d+K
dHglKrXKiayaC7ykJfk4wBNYG1xgCrecdN6xe+JeHYVQ4GkixS/hGhzKzaerDaLO
8YiSaBD6Hcr0Ym3NixtyL2ehtvbvufHovUJU2Evgi5ttLRzKw+t5XNcA
-----END CERTIFICATE-----
