Certificate:
    Data:
        Version: 3 (0x2)
        Serial Number: 7 (0x7)
    Signature Algorithm: sha1WithRSAEncryption
        Issuer: CN=hx509 Test Root CA, C=SE
        Validity
            Not Before: May 23 15:05:15 2019 GMT
            Not After : Jan 16 15:05:15 2038 GMT
        Subject: C=SE, CN=pkinit-ec
        Subject Public Key Info:
            Public Key Algorithm: id-ecPublicKey
                Public-Key: (256 bit)
                pub:
                    04:57:a2:25:14:5b:a7:ac:55:9e:e0:ea:c2:92:98:
                    c9:13:91:d3:c4:13:00:0c:f9:d6:29:a4:45:c3:53:
                    f2:f6:92:8e:d9:ce:d4:24:48:56:80:1c:04:8e:13:
                    ec:49:c1:4d:78:5e:f5:1c:d7:c2:0e:8d:93:da:a4:
                    79:18:6b:0a:9a
                ASN1 OID: prime256v1
                NIST CURVE: P-256
        X509v3 extensions:
            X509v3 Basic Constraints: 
                CA:FALSE
            X509v3 Key Usage: 
                Digital Signature, Non Repudiation, Key Encipherment
            X509v3 Subject Key Identifier: 
                1D:2E:2D:D0:63:94:5A:99:95:87:DD:A3:11:F8:82:5A:2A:43:2B:28
            X509v3 Subject Alternative Name: 
                othername:<unsupported>
    Signature Algorithm: sha1WithRSAEncryption
         b3:3e:84:9b:be:cd:a0:cc:21:dd:f7:12:41:90:8e:9e:25:30:
         0b:2d:b5:1c:35:a1:15:76:9c:7e:dc:23:33:16:bf:ab:60:82:
         ad:3a:2e:4f:84:f1:62:21:7c:1c:a1:37:45:01:12:cf:99:aa:
         a3:b4:72:fe:c9:e3:bd:25:ef:4d:bf:b5:e2:ac:15:3f:b3:b7:
         df:78:2b:0e:2d:95:71:0b:c7:6c:31:54:c0:c1:e0:8f:00:10:
         31:20:a6:5e:71:bd:d6:6f:45:cc:25:11:3d:ce:26:75:8b:ba:
         03:3c:d4:87:89:c7:93:5b:d9:76:b1:20:96:83:07:91:34:05:
         12:2d:56:e8:18:b2:4a:2d:ba:b0:59:02:65:81:60:3b:92:96:
         7d:d1:c9:ab:bf:ac:bb:aa:f7:b3:a5:0b:de:e5:cb:0c:16:ac:
         65:1c:da:6a:c5:16:43:15:b7:14:55:b9:6d:0f:f0:79:ef:b1:
         d0:6e:bf:85:fb:bb:93:6b:30:69:98:db:da:8c:f2:3a:e8:a3:
         c9:57:3c:d0:fa:7e:db:cd:48:93:7a:cd:af:a4:71:06:3d:a6:
         94:b4:99:3a:2e:9c:3a:ac:2f:19:f5:19:1d:71:3d:96:00:74:
         c9:99:58:40:0d:c2:bf:cf:85:8f:dd:f6:ff:b0:cf:1a:84:6d:
         02:87:4d:96:7d:db:2f:f1:8a:e5:39:30:8b:89:c4:8d:34:60:
         05:85:96:92:fc:a0:6a:b9:df:54:53:e6:f3:9a:27:2d:bc:9d:
         8d:a5:44:bd:81:83:d3:8a:d6:96:b1:71:b3:4b:40:b6:95:e2:
         45:19:e3:a5:3c:17:af:a8:39:2a:52:68:e4:7c:0f:fa:fd:15:
         07:fd:e5:e8:1c:cb:b3:2c:d4:97:21:7b:86:fb:fb:78:9a:6a:
         f2:71:0b:b7:2e:d7:df:96:cb:2e:83:2e:81:29:50:0f:e0:50:
         0f:d5:34:7d:13:eb:a2:68:d2:a1:26:35:15:08:a9:ac:7e:f5:
         8d:4c:68:01:a2:01:05:db:5b:7d:ea:ba:45:ea:34:93:db:89:
         0e:46:58:6e:a3:6f:aa:4a:6c:ac:28:58:a0:48:cc:e2:75:54:
         e4:79:19:b3:d5:6c:c9:04:b3:d0:9b:51:f5:07:0e:e1:a0:07:
         61:e9:53:dc:0f:83:3c:7f:54:7b:ca:7e:35:b9:6c:0a:e5:b4:
         61:48:11:a1:92:27:1d:2e:57:07:67:f0:b0:66:61:0b:a5:15:
         d1:1a:10:05:34:90:52:a3:c4:a8:19:cf:3e:52:b3:c9:ab:49:
         e8:84:96:a9:9f:d7:bb:a4:43:2b:ef:b2:bf:8b:01:46:b0:48:
         e4:80:b8:3e:4a:ab:85:5f
-----BEGIN CERTIFICATE-----
MIIDbjCCAVagAwIBAgIBBzANBgkqhkiG9w0BAQUFADAqMRswGQYDVQQDDBJoeDUw
OSBUZXN0IFJvb3QgQ0ExCzAJBgNVBAYTAlNFMB4XDTE5MDUyMzE1MDUxNVoXDTM4
MDExNjE1MDUxNVowITELMAkGA1UEBhMCU0UxEjAQBgNVBAMMCXBraW5pdC1lYzBZ
MBMGByqGSM49AgEGCCqGSM49AwEHA0IABFeiJRRbp6xVnuDqwpKYyROR08QTAAz5
1imkRcNT8vaSjtnO1CRIVoAcBI4T7EnBTXhe9RzXwg6Nk9qkeRhrCpqjczBxMAkG
A1UdEwQCMAAwCwYDVR0PBAQDAgXgMB0GA1UdDgQWBBQdLi3QY5RamZWH3aMR+IJa
KkMrKDA4BgNVHREEMTAvoC0GBisGAQUCAqAjMCGgDRsLVEVTVC5INUwuU0WhEDAO
oAMCAQGhBzAFGwNiYXIwDQYJKoZIhvcNAQEFBQADggIBALM+hJu+zaDMId33EkGQ
jp4lMAsttRw1oRV2nH7cIzMWv6tggq06Lk+E8WIhfByhN0UBEs+ZqqO0cv7J470l
702/teKsFT+zt994Kw4tlXELx2wxVMDB4I8AEDEgpl5xvdZvRcwlET3OJnWLugM8
1IeJx5Nb2XaxIJaDB5E0BRItVugYskoturBZAmWBYDuSln3Ryau/rLuq97OlC97l
ywwWrGUc2mrFFkMVtxRVuW0P8HnvsdBuv4X7u5NrMGmY29qM8jroo8lXPND6ftvN
SJN6za+kcQY9ppS0mTounDqsLxn1GR1xPZYAdMmZWEANwr/PhY/d9v+wzxqEbQKH
TZZ92y/xiuU5MIuJxI00YAWFlpL8oGq531RT5vOaJy28nY2lRL2Bg9OK1paxcbNL
QLaV4kUZ46U8F6+oOSpSaOR8D/r9FQf95egcy7Ms1Jche4b7+3iaavJxC7cu19+W
yy6DLoEpUA/gUA/VNH0T66Jo0qEmNRUIqax+9Y1MaAGiAQXbW33qukXqNJPbiQ5G
WG6jb6pKbKwoWKBIzOJ1VOR5GbPVbMkEs9CbUfUHDuGgB2HpU9wPgzx/VHvKfjW5
bArltGFIEaGSJx0uVwdn8LBmYQulFdEaEAU0kFKjxKgZzz5Ss8mrSeiElqmf17uk
Qyvvsr+LAUawSOSAuD5Kq4Vf
-----END CERTIFICATE-----
