Certificate:
    Data:
        Version: 3 (0x2)
        Serial Number: 3 (0x3)
    Signature Algorithm: sha1WithRSAEncryption
        Issuer: CN=hx509 Test Root CA, C=SE
        Validity
            Not Before: May 23 15:05:12 2019 GMT
            Not After : Jan 16 15:05:12 2038 GMT
        Subject: C=SE, CN=Revoke cert
        Subject Public Key Info:
            Public Key Algorithm: rsaEncryption
                Public-Key: (4096 bit)
                Modulus:
                    00:bf:d0:af:36:d0:76:65:eb:21:0c:44:48:66:6e:
                    43:c8:d4:07:73:4f:2f:36:b7:1b:ec:6a:aa:7b:60:
                    f2:87:9a:94:bc:ba:91:f8:1c:c8:1a:01:e4:fb:d1:
                    ac:3f:a6:07:26:2a:b7:8f:79:f8:31:ea:4f:e3:9d:
                    2d:84:43:0f:ee:d4:1d:5d:e3:f6:16:31:5c:bf:f9:
                    ce:3e:b8:4a:e3:77:2b:bc:41:ee:84:52:2a:c0:7a:
                    aa:86:a5:21:9c:c5:a0:2a:e6:d8:46:33:c5:87:14:
                    76:a5:71:2d:ae:7a:e6:60:0c:3c:35:cb:af:80:6c:
                    bf:cf:eb:25:f3:0f:be:5b:53:59:cb:b2:9b:c9:17:
                    86:2d:08:a7:60:1e:42:d5:80:ea:74:b3:d0:7c:3c:
                    42:33:58:c2:bf:35:5b:e6:7a:8a:9c:fc:7f:fc:c9:
                    cc:3f:7e:52:d6:8c:33:1a:2b:03:de:a4:fb:04:86:
                    13:a9:b6:0f:d2:a4:12:1d:88:a6:4d:aa:85:c2:ff:
                    19:11:bf:04:e0:57:1c:2e:03:97:b8:83:9b:0d:75:
                    95:d7:15:f4:31:5c:2e:76:39:25:f3:fa:b1:9a:ca:
                    de:c8:39:cf:03:72:d8:23:0a:00:3a:e9:66:ef:8a:
                    f2:b0:fc:56:04:3d:b8:e6:dc:f4:a0:ae:73:1b:ae:
                    e4:03:42:79:f0:ee:14:51:18:8f:bb:d5:7f:cb:5a:
                    21:6d:b9:9d:b9:3c:9e:15:24:23:2d:bf:c5:a3:66:
                    45:f6:33:dc:06:7b:e1:68:f7:75:2d:58:9d:e1:73:
                    06:79:a0:de:68:e2:70:5f:5a:fc:05:a7:26:d6:76:
                    57:f8:12:7b:48:07:93:65:a8:d1:04:94:a0:42:9e:
                    a8:8e:ff:3a:c7:aa:54:6d:c1:99:2d:2a:c2:33:65:
                    49:82:e7:df:bd:18:10:e3:69:df:d6:d7:16:4b:72:
                    b3:3c:fb:81:72:97:cd:28:35:13:b9:2e:09:55:4d:
                    40:eb:e0:2e:24:f5:f2:0c:04:e4:38:90:db:1f:7e:
                    79:42:97:9d:74:7a:87:c3:18:da:ec:9e:8c:00:25:
                    36:87:88:05:49:77:c2:76:fc:68:76:59:b0:1f:d7:
                    d5:81:d9:47:f9:e9:62:c6:f5:08:06:d0:21:50:eb:
                    c7:b6:d4:9e:dc:94:68:d0:0f:df:74:f1:43:2e:38:
                    3c:76:ed:b1:b8:4d:88:8e:ae:e5:52:a9:9e:29:fa:
                    da:a6:aa:28:e2:0e:cf:c9:c7:4d:fd:cb:14:a3:aa:
                    d2:87:bf:e2:9f:09:86:e6:0e:77:14:c8:d8:96:b2:
                    51:65:d6:bf:23:9b:da:ed:70:47:c5:7a:3e:1e:be:
                    75:8b:8d
                Exponent: 65537 (0x10001)
        X509v3 extensions:
            X509v3 Basic Constraints: 
                CA:FALSE
            X509v3 Key Usage: 
                Digital Signature, Non Repudiation, Key Encipherment
            X509v3 Subject Key Identifier: 
                C0:C4:1E:26:C8:53:2E:80:A5:50:44:F1:79:38:05:B4:12:CA:AA:7F
    Signature Algorithm: sha1WithRSAEncryption
         b1:f4:93:82:51:8f:d2:a0:c0:a7:9a:da:d3:f6:fc:01:aa:ae:
         e9:a1:05:32:62:9b:63:a2:a3:05:ea:9e:f8:b3:af:d2:50:42:
         70:6f:35:88:86:f2:f5:bb:6f:44:a7:9b:51:14:c8:e1:9e:13:
         c4:e6:ab:5a:bb:40:50:c2:ae:d5:b5:64:48:ab:29:30:d6:90:
         f6:6f:24:b2:e9:aa:8d:12:54:68:5f:70:bc:99:5c:cf:c5:7d:
         ae:e7:d2:7c:50:c0:7f:a6:a8:ae:0f:3b:9d:1a:e4:18:b3:f8:
         90:2c:a4:cf:83:41:c8:54:82:20:df:bc:4e:6a:6e:e6:61:dd:
         d1:fa:95:2e:4b:22:28:84:db:d8:47:fb:a6:d7:65:07:41:64:
         1f:16:db:39:ea:75:23:63:d5:59:df:03:cf:4f:28:2a:73:07:
         da:0c:f2:3f:3a:cb:40:3b:73:92:2e:93:79:90:a0:4c:ed:bc:
         aa:7a:c4:40:54:5f:39:cf:e2:81:59:98:73:ce:5e:71:2a:3a:
         1f:60:94:fd:c3:c4:7f:24:05:31:66:d2:5f:ba:62:db:5c:ec:
         40:38:79:ee:5a:6d:90:8d:f7:99:49:cc:e0:1e:8e:47:0e:50:
         c4:19:c2:43:bc:87:33:c0:fd:8a:cf:af:71:35:0b:fb:14:7a:
         c4:5b:01:09:86:5e:8a:ab:b9:8b:81:50:bc:a3:d9:59:53:30:
         2c:97:32:97:da:16:3b:42:78:84:31:13:9a:ad:a9:a4:9d:5c:
         5d:69:6a:eb:53:71:e8:95:11:04:d7:ef:50:c0:c2:32:55:75:
         a9:db:0d:4a:5c:b4:10:91:60:88:ec:25:8c:26:52:a9:be:5b:
         71:5e:ba:e0:df:ad:ac:e0:cd:01:7b:8f:ff:c5:c6:f0:9e:e6:
         e2:f6:44:31:07:3c:99:d5:8f:43:1d:c4:5e:57:58:0e:72:4b:
         76:5d:4e:14:f5:03:08:c4:d4:05:71:2b:da:71:8f:c8:ec:b2:
         1f:cd:c3:52:6e:6d:53:db:9a:40:37:77:53:71:02:1f:a5:12:
         e6:32:1d:bc:0e:83:b5:03:e4:85:ba:54:b2:3c:2e:c0:70:77:
         a5:86:21:fc:6e:f7:46:24:84:75:9a:0f:f5:af:fa:12:26:b9:
         65:e5:8c:89:7e:42:d3:5a:22:22:dc:96:ed:92:17:65:e4:12:
         21:9c:ae:8d:03:c3:3b:d6:bf:68:b8:ba:08:51:44:8a:77:07:
         9d:be:de:a1:0e:93:cf:17:29:e3:67:ff:9c:e5:ea:5a:0d:b0:
         bc:8d:5f:f3:44:d1:f8:12:b3:53:82:09:30:13:e4:12:99:3c:
         d0:73:09:85:64:95:9e:bb
-----BEGIN CERTIFICATE-----
MIIFATCCAumgAwIBAgIBAzANBgkqhkiG9w0BAQUFADAqMRswGQYDVQQDDBJoeDUw
OSBUZXN0IFJvb3QgQ0ExCzAJBgNVBAYTAlNFMB4XDTE5MDUyMzE1MDUxMloXDTM4
MDExNjE1MDUxMlowIzELMAkGA1UEBhMCU0UxFDASBgNVBAMMC1Jldm9rZSBjZXJ0
MIICIjANBgkqhkiG9w0BAQEFAAOCAg8AMIICCgKCAgEAv9CvNtB2ZeshDERIZm5D
yNQHc08vNrcb7Gqqe2Dyh5qUvLqR+BzIGgHk+9GsP6YHJiq3j3n4MepP450thEMP
7tQdXeP2FjFcv/nOPrhK43crvEHuhFIqwHqqhqUhnMWgKubYRjPFhxR2pXEtrnrm
YAw8NcuvgGy/z+sl8w++W1NZy7KbyReGLQinYB5C1YDqdLPQfDxCM1jCvzVb5nqK
nPx//MnMP35S1owzGisD3qT7BIYTqbYP0qQSHYimTaqFwv8ZEb8E4FccLgOXuIOb
DXWV1xX0MVwudjkl8/qxmsreyDnPA3LYIwoAOulm74rysPxWBD245tz0oK5zG67k
A0J58O4UURiPu9V/y1ohbbmduTyeFSQjLb/Fo2ZF9jPcBnvhaPd1LVid4XMGeaDe
aOJwX1r8Bacm1nZX+BJ7SAeTZajRBJSgQp6ojv86x6pUbcGZLSrCM2VJguffvRgQ
42nf1tcWS3KzPPuBcpfNKDUTuS4JVU1A6+AuJPXyDATkOJDbH355QpeddHqHwxja
7J6MACU2h4gFSXfCdvxodlmwH9fVgdlH+elixvUIBtAhUOvHttSe3JRo0A/fdPFD
Ljg8du2xuE2Ijq7lUqmeKfrapqoo4g7PycdN/csUo6rSh7/inwmG5g53FMjYlrJR
Zda/I5va7XBHxXo+Hr51i40CAwEAAaM5MDcwCQYDVR0TBAIwADALBgNVHQ8EBAMC
BeAwHQYDVR0OBBYEFMDEHibIUy6ApVBE8Xk4BbQSyqp/MA0GCSqGSIb3DQEBBQUA
A4ICAQCx9JOCUY/SoMCnmtrT9vwBqq7poQUyYptjoqMF6p74s6/SUEJwbzWIhvL1
u29Ep5tRFMjhnhPE5qtau0BQwq7VtWRIqykw1pD2bySy6aqNElRoX3C8mVzPxX2u
59J8UMB/pqiuDzudGuQYs/iQLKTPg0HIVIIg37xOam7mYd3R+pUuSyIohNvYR/um
12UHQWQfFts56nUjY9VZ3wPPTygqcwfaDPI/OstAO3OSLpN5kKBM7byqesRAVF85
z+KBWZhzzl5xKjofYJT9w8R/JAUxZtJfumLbXOxAOHnuWm2QjfeZSczgHo5HDlDE
GcJDvIczwP2Kz69xNQv7FHrEWwEJhl6Kq7mLgVC8o9lZUzAslzKX2hY7QniEMROa
ramknVxdaWrrU3HolREE1+9QwMIyVXWp2w1KXLQQkWCI7CWMJlKpvltxXrrg362s
4M0Be4//xcbwnubi9kQxBzyZ1Y9DHcReV1gOckt2XU4U9QMIxNQFcSvacY/I7LIf
zcNSbm1T25pAN3dTcQIfpRLmMh28DoO1A+SFulSyPC7AcHelhiH8bvdGJIR1mg/1
r/oSJrll5YyJfkLTWiIi3Jbtkhdl5BIhnK6NA8M71r9ouLoIUUSKdwedvt6hDpPP
FynjZ/+c5epaDbC8jV/zRNH4ErNTggkwE+QSmTzQcwmFZJWeuw==
-----END CERTIFICATE-----
