Certificate:
    Data:
        Version: 3 (0x2)
        Serial Number: 10 (0xa)
    Signature Algorithm: sha1WithRSAEncryption
        Issuer: CN=hx509 Test Root CA, C=SE
        Validity
            Not Before: May 23 15:05:18 2019 GMT
            Not After : Jan 16 15:05:18 2038 GMT
        Subject: C=SE, CN=Sub CA
        Subject Public Key Info:
            Public Key Algorithm: rsaEncryption
                Public-Key: (4096 bit)
                Modulus:
                    00:ea:9c:d3:ba:0e:de:f9:c6:3c:2e:ef:7e:91:40:
                    8e:58:04:16:4f:ff:81:61:0c:fd:b4:d2:86:3c:8a:
                    6a:f9:33:63:0b:8e:2b:ac:9c:5c:00:28:16:fe:32:
                    bc:75:55:00:d2:91:0c:92:c9:0a:2d:c7:e2:f4:dd:
                    14:fe:20:d8:45:79:d1:a0:1e:5d:91:a5:d2:00:17:
                    a4:bd:44:35:9c:f4:5f:63:dc:b9:19:a5:66:73:b1:
                    16:ae:e7:d5:59:bd:d3:85:b1:b7:ae:3e:a8:a8:9e:
                    0d:d9:cd:f5:38:30:d3:56:d9:44:08:11:23:ca:bb:
                    5e:96:fd:8d:e8:77:7e:c4:8e:58:a8:02:6d:20:77:
                    9a:9d:4b:bd:6a:6e:c0:a4:77:d2:37:cb:b5:c4:4a:
                    87:03:a9:aa:a8:22:4b:e9:13:f2:22:64:44:0c:b4:
                    2b:60:56:9b:c7:76:1e:7d:ba:06:15:9a:ad:ae:36:
                    9a:9d:f0:df:83:e5:64:4b:18:53:b1:1d:ed:bc:70:
                    08:48:45:7e:c6:ab:ad:d9:bc:79:03:3d:af:e8:f6:
                    cd:4e:04:27:ce:8c:d7:09:d9:50:87:f7:76:37:eb:
                    a3:3b:96:46:b6:05:85:3c:f2:0a:23:3c:d2:8e:0e:
                    86:08:19:6f:8f:56:2f:bd:90:80:98:a9:8a:c4:9a:
                    71:9d:25:08:9b:d0:14:23:d4:99:ac:f9:68:44:fd:
                    01:bd:e4:b0:1f:87:f2:0c:16:88:31:01:5e:af:df:
                    81:c0:29:d1:05:c8:37:6f:4c:b6:81:b3:d0:f1:f5:
                    d9:1c:cf:e6:95:40:41:ec:2f:b9:39:d2:1b:48:c9:
                    03:ca:0a:9f:4b:41:74:ff:31:bd:40:d5:46:cc:c9:
                    84:94:e9:aa:d3:ae:df:fc:07:0e:4b:6c:68:07:70:
                    92:aa:ff:9a:21:c0:67:aa:e8:72:7b:db:97:f4:d0:
                    fb:e9:6d:4c:48:19:55:fb:c4:f3:fa:78:c6:94:2f:
                    fd:88:b1:c7:58:fd:03:2a:28:51:5e:8e:2d:95:fa:
                    46:57:b9:6c:93:b5:8a:44:21:82:1d:d2:c7:0b:88:
                    24:2d:e0:45:0d:8f:3a:23:c4:1f:e2:2d:00:a4:71:
                    a7:01:c7:17:b8:03:29:fc:2e:92:9b:dd:75:cc:1e:
                    0e:01:72:71:a7:80:9f:7b:e1:eb:35:42:1f:0c:1d:
                    ae:69:2c:ee:70:65:19:4c:5b:d7:07:27:c8:2c:ce:
                    cc:d1:67:39:de:88:0a:e1:21:c9:ad:50:f2:88:79:
                    15:6d:7a:46:23:4a:93:bd:72:b5:3c:a4:d2:91:27:
                    ab:d2:f0:f7:5f:17:8c:7e:01:33:6e:2e:3e:8f:48:
                    18:06:ef
                Exponent: 65537 (0x10001)
        X509v3 extensions:
            X509v3 Subject Key Identifier: 
                4D:9F:B8:92:F4:98:3B:7E:1F:EA:AE:A3:3C:DF:CF:E7:56:4E:F6:25
            X509v3 Authority Key Identifier: 
                keyid:FD:C6:56:72:BC:EA:82:19:48:00:B0:A3:8B:F7:79:3F:F7:26:FC:23
                DirName:/CN=hx509 Test Root CA/C=SE
                serial:99:65:F9:34:C3:90:C1:72

            X509v3 Basic Constraints: 
                CA:TRUE
            X509v3 Key Usage: 
                Digital Signature, Non Repudiation, Key Encipherment, Certificate Sign, CRL Sign
    Signature Algorithm: sha1WithRSAEncryption
         8f:4e:97:f7:a7:87:17:27:af:2f:30:23:97:2e:09:35:03:01:
         9c:13:38:12:85:49:10:ce:69:c4:74:69:67:6d:61:3a:bb:c5:
         5a:e7:55:da:f0:a3:06:be:ff:55:eb:89:a2:65:2e:35:ca:24:
         49:0a:fa:01:3a:c8:50:af:94:ee:cd:e9:67:2a:1b:1b:a3:40:
         1e:e4:4a:7a:31:93:1c:e6:77:9e:a3:41:19:66:64:dd:f3:73:
         34:d7:28:38:3f:f5:94:2d:58:3f:bd:24:cd:5b:ed:77:81:53:
         31:45:67:e4:d7:85:ce:d2:10:f1:b7:0f:03:22:3c:c1:be:aa:
         8a:d1:92:b6:03:e5:92:a3:4c:d3:76:ee:8a:83:01:c8:a0:0a:
         53:3a:c6:a4:36:8d:51:35:a5:07:dc:8c:35:c9:03:fa:1d:ec:
         49:05:f0:b0:0e:fe:24:f5:4e:db:be:f3:00:b0:35:57:d6:31:
         02:c2:e1:6f:3a:2c:2c:42:f9:87:5b:c3:72:f7:46:6a:1f:0e:
         16:50:ee:a6:00:42:30:ad:05:07:d4:8e:0a:0d:c6:23:b3:d7:
         9b:01:57:12:7b:7d:1b:5d:60:b7:fe:78:4f:91:1b:76:df:a6:
         a7:f5:61:76:3b:1c:6f:7c:c7:57:7f:bf:c7:ac:23:c5:c5:cf:
         6b:5e:83:1c:4c:7e:83:2d:f6:db:51:85:7c:d3:6b:dc:f6:f7:
         53:1f:26:3a:8d:91:f1:6a:43:cb:57:1a:24:71:94:48:74:72:
         a1:58:ea:f8:0d:3e:71:5b:35:2f:30:b4:3a:2c:6e:b4:51:27:
         7e:66:e5:f8:cc:2b:88:bc:98:cf:24:6b:5f:46:31:3e:ce:58:
         d4:26:01:87:c8:1b:d9:10:a1:76:3a:f1:8b:16:2f:3f:54:b0:
         95:ff:c0:4f:3a:67:2d:28:6e:2c:fb:81:87:92:c8:8c:13:45:
         3e:d0:ec:12:b8:52:0e:71:dc:dc:50:1f:57:44:1d:6f:80:bd:
         50:db:26:3e:63:27:53:9f:99:46:39:04:2b:66:a7:f9:f3:f3:
         99:c6:33:4a:44:0b:90:ea:5d:17:1c:41:1e:44:db:73:c5:68:
         d1:e4:04:01:99:49:59:23:0d:2b:06:5a:fc:db:56:90:67:6d:
         28:b8:66:6c:56:70:12:ae:36:dd:f0:b9:6d:f1:c9:5c:77:0f:
         30:d9:46:e1:57:e5:d3:92:92:c1:74:40:99:24:00:ff:57:59:
         2d:48:e5:1f:97:34:8b:7f:26:3e:24:9e:a6:96:14:16:d7:be:
         94:1a:55:37:5a:d2:94:1f:df:9d:f2:8a:88:5d:e2:8b:c4:59:
         60:06:44:52:a9:73:29:ed
-----BEGIN CERTIFICATE-----
MIIFXTCCA0WgAwIBAgIBCjANBgkqhkiG9w0BAQUFADAqMRswGQYDVQQDDBJoeDUw
OSBUZXN0IFJvb3QgQ0ExCzAJBgNVBAYTAlNFMB4XDTE5MDUyMzE1MDUxOFoXDTM4
MDExNjE1MDUxOFowHjELMAkGA1UEBhMCU0UxDzANBgNVBAMMBlN1YiBDQTCCAiIw
DQYJKoZIhvcNAQEBBQADggIPADCCAgoCggIBAOqc07oO3vnGPC7vfpFAjlgEFk//
gWEM/bTShjyKavkzYwuOK6ycXAAoFv4yvHVVANKRDJLJCi3H4vTdFP4g2EV50aAe
XZGl0gAXpL1ENZz0X2PcuRmlZnOxFq7n1Vm904Wxt64+qKieDdnN9Tgw01bZRAgR
I8q7Xpb9jeh3fsSOWKgCbSB3mp1LvWpuwKR30jfLtcRKhwOpqqgiS+kT8iJkRAy0
K2BWm8d2Hn26BhWara42mp3w34PlZEsYU7Ed7bxwCEhFfsarrdm8eQM9r+j2zU4E
J86M1wnZUIf3djfrozuWRrYFhTzyCiM80o4OhggZb49WL72QgJipisSacZ0lCJvQ
FCPUmaz5aET9Ab3ksB+H8gwWiDEBXq/fgcAp0QXIN29MtoGz0PH12RzP5pVAQewv
uTnSG0jJA8oKn0tBdP8xvUDVRszJhJTpqtOu3/wHDktsaAdwkqr/miHAZ6rocnvb
l/TQ++ltTEgZVfvE8/p4xpQv/Yixx1j9AyooUV6OLZX6Rle5bJO1ikQhgh3SxwuI
JC3gRQ2POiPEH+ItAKRxpwHHF7gDKfwukpvddcweDgFycaeAn3vh6zVCHwwdrmks
7nBlGUxb1wcnyCzOzNFnOd6ICuEhya1Q8oh5FW16RiNKk71ytTyk0pEnq9Lw918X
jH4BM24uPo9IGAbvAgMBAAGjgZkwgZYwHQYDVR0OBBYEFE2fuJL0mDt+H+quozzf
z+dWTvYlMFoGA1UdIwRTMFGAFP3GVnK86oIZSACwo4v3eT/3JvwjoS6kLDAqMRsw
GQYDVQQDDBJoeDUwOSBUZXN0IFJvb3QgQ0ExCzAJBgNVBAYTAlNFggkAmWX5NMOQ
wXIwDAYDVR0TBAUwAwEB/zALBgNVHQ8EBAMCAeYwDQYJKoZIhvcNAQEFBQADggIB
AI9Ol/enhxcnry8wI5cuCTUDAZwTOBKFSRDOacR0aWdtYTq7xVrnVdrwowa+/1Xr
iaJlLjXKJEkK+gE6yFCvlO7N6WcqGxujQB7kSnoxkxzmd56jQRlmZN3zczTXKDg/
9ZQtWD+9JM1b7XeBUzFFZ+TXhc7SEPG3DwMiPMG+qorRkrYD5ZKjTNN27oqDAcig
ClM6xqQ2jVE1pQfcjDXJA/od7EkF8LAO/iT1Ttu+8wCwNVfWMQLC4W86LCxC+Ydb
w3L3RmofDhZQ7qYAQjCtBQfUjgoNxiOz15sBVxJ7fRtdYLf+eE+RG3bfpqf1YXY7
HG98x1d/v8esI8XFz2tegxxMfoMt9ttRhXzTa9z291MfJjqNkfFqQ8tXGiRxlEh0
cqFY6vgNPnFbNS8wtDosbrRRJ35m5fjMK4i8mM8ka19GMT7OWNQmAYfIG9kQoXY6
8YsWLz9UsJX/wE86Zy0obiz7gYeSyIwTRT7Q7BK4Ug5x3NxQH1dEHW+AvVDbJj5j
J1OfmUY5BCtmp/nz85nGM0pEC5DqXRccQR5E23PFaNHkBAGZSVkjDSsGWvzbVpBn
bSi4ZmxWcBKuNt3wuW3xyVx3DzDZRuFX5dOSksF0QJkkAP9XWS1I5R+XNIt/Jj4k
nqaWFBbXvpQaVTda0pQf353yiohd4ovEWWAGRFKpcynt
-----END CERTIFICATE-----
