Certificate:
    Data:
        Version: 3 (0x2)
        Serial Number: 11 (0xb)
    Signature Algorithm: sha1WithRSAEncryption
        Issuer: C=SE, CN=Sub CA
        Validity
            Not Before: May 23 15:05:20 2019 GMT
            Not After : Jan 16 15:05:20 2038 GMT
        Subject: C=SE, CN=Test sub cert
        Subject Public Key Info:
            Public Key Algorithm: rsaEncryption
                Public-Key: (4096 bit)
                Modulus:
                    00:b0:b9:77:f4:5d:e2:66:7d:10:16:aa:24:16:3b:
                    13:8d:ad:b1:00:12:eb:49:14:8d:73:3a:e2:ee:f7:
                    fe:13:98:da:d9:d6:72:e2:8e:a9:dc:c6:d9:5c:86:
                    e6:03:fd:29:a5:de:46:05:02:4f:a9:79:25:61:5f:
                    f7:53:64:03:cd:2e:9d:c8:43:d9:45:48:14:7e:59:
                    ae:c6:ad:25:78:10:71:57:43:30:45:65:d4:0c:5d:
                    52:91:97:dc:b8:93:38:64:9a:0b:4f:da:16:f7:1b:
                    8e:aa:f5:e5:cc:3d:0d:84:ba:d7:fd:f9:5f:4a:ed:
                    c3:c8:36:66:f4:42:fc:5d:00:2b:7d:7b:8b:51:94:
                    35:a9:27:3a:71:fb:ac:f5:2f:e4:d2:8b:c6:22:e5:
                    e5:a3:1b:13:95:3e:0f:0d:3e:07:1f:6e:23:b0:5d:
                    f7:60:01:e5:08:85:01:ac:48:31:32:38:1e:57:e8:
                    1b:3c:38:c3:70:3a:81:1b:04:60:3b:c7:20:a9:8a:
                    fe:b9:c5:4b:c7:10:28:32:0a:7c:1d:f3:8f:5c:d0:
                    2a:2e:83:97:3a:5f:42:34:95:1b:c4:b1:73:ff:23:
                    a9:e6:fb:9f:f4:40:2e:2f:c0:ad:9f:d6:c2:45:21:
                    40:51:f9:2e:98:db:90:34:3e:f6:54:e5:fc:cc:d5:
                    06:4c:19:81:53:af:bd:a1:8d:83:3a:b5:c7:1b:85:
                    78:dc:64:65:f8:ed:88:b6:69:4d:c0:3b:da:9b:d5:
                    eb:32:e0:e0:1c:00:65:e7:f0:5b:f1:bc:e2:e8:8a:
                    a5:31:9e:d6:da:d3:c3:2f:d0:84:9a:f3:f1:2d:e1:
                    b3:63:3e:2a:ce:c9:98:45:1b:7e:8a:bc:2f:0a:f1:
                    39:82:39:70:d0:f7:28:18:3a:74:eb:d0:4c:e7:99:
                    e5:e6:b1:f7:33:57:60:14:cf:2b:24:59:ed:30:f6:
                    a5:b1:6b:54:3d:74:ef:68:7c:69:b1:35:e8:1b:9e:
                    0a:d4:38:27:ea:7c:1e:01:11:46:4e:07:b2:da:00:
                    f5:8c:a5:a6:d0:7f:24:a7:d9:32:a2:bf:6e:92:a3:
                    16:83:1d:ed:74:e6:3f:6b:ab:1b:23:65:84:32:51:
                    94:2f:1e:01:1d:13:b7:b3:6e:c2:2e:67:bd:33:8e:
                    41:44:14:29:07:92:01:99:2d:f6:ac:51:26:a3:44:
                    67:5e:cd:0e:35:e7:83:43:3a:20:78:63:23:4c:ee:
                    f4:5b:32:0f:17:49:14:d6:14:9d:d4:32:2d:b6:15:
                    42:2a:7e:1f:3a:90:df:df:92:6d:b8:41:e3:39:29:
                    d9:c2:2c:bf:94:67:9e:a9:8b:10:14:3a:ca:0a:10:
                    cf:a4:5d
                Exponent: 65537 (0x10001)
        X509v3 extensions:
            X509v3 Basic Constraints: 
                CA:FALSE
            X509v3 Key Usage: 
                Digital Signature, Non Repudiation, Key Encipherment
            X509v3 Subject Key Identifier: 
                C8:FC:4C:74:0D:42:18:8E:0A:4B:7C:61:C7:CD:36:FD:A9:96:8E:64
    Signature Algorithm: sha1WithRSAEncryption
         5c:65:de:68:c8:80:3b:8b:08:74:2d:f4:89:51:42:7e:ac:41:
         83:d0:7f:ff:cb:d4:95:84:10:52:f9:2f:77:62:04:b9:03:8f:
         a5:b2:16:92:19:c9:94:62:ae:3a:2b:73:89:59:73:2e:e3:05:
         05:0a:dc:e4:00:be:6b:fc:1e:ad:92:e2:8d:1d:a8:e2:71:6e:
         10:3b:50:5d:1c:c1:97:e7:4a:14:c3:1e:9a:a3:4c:e6:5f:4a:
         fe:21:43:94:e1:e5:11:7c:42:c6:b7:06:d5:11:45:5d:3c:bf:
         e7:9d:9b:4e:0a:9b:7a:94:09:ed:b1:fb:07:c4:2f:16:a3:8b:
         92:50:23:b6:5c:33:fa:2c:39:83:3a:6a:92:d2:00:a8:e0:a7:
         28:25:8a:b6:09:ee:17:6a:f3:be:38:c8:48:04:2e:81:96:9c:
         08:a2:3b:48:6e:f2:75:d8:5b:07:00:13:64:1f:a5:a1:7e:bf:
         d1:a4:fa:5f:61:55:40:67:8a:76:31:28:1c:f8:a7:f0:9e:bb:
         e0:bd:18:89:6c:9c:e7:21:9f:49:ab:3f:1b:43:12:c3:4d:fc:
         cc:e7:f4:4c:4f:c0:45:5b:30:f7:9b:09:60:a7:46:a5:f0:8b:
         ea:ab:62:78:3c:7a:cc:ea:09:2b:f7:7c:06:04:b2:f7:31:68:
         b0:25:e0:7e:bf:50:b5:a3:b6:f3:1d:c0:42:95:d9:79:f6:8e:
         94:cc:b4:da:f9:e6:fe:7a:44:93:80:0b:25:d9:54:69:8e:d8:
         7e:08:a8:63:55:67:3c:32:87:52:73:38:fa:0a:e0:4c:ac:1e:
         b1:7d:bc:89:ee:a5:d6:79:ed:79:2c:97:f0:c6:a4:1f:ff:ca:
         1e:38:a9:86:22:46:d3:ff:69:44:aa:7c:9d:c0:35:d3:99:03:
         86:5e:b4:d0:e4:16:c9:f1:83:16:5f:b8:b9:a0:8b:16:c2:31:
         17:2d:59:de:a7:b0:16:cc:63:10:16:17:20:cf:e3:af:02:92:
         48:d3:64:38:44:9c:16:a9:62:5b:be:7f:c8:1f:4e:69:d6:44:
         35:92:cd:69:fc:e5:23:60:4e:a3:93:92:1f:aa:6e:ae:77:cc:
         63:fe:ff:49:10:10:c4:3c:53:34:1c:d9:51:41:d8:73:86:5e:
         d5:a8:22:38:b0:20:3a:11:3f:a0:50:ba:4a:ad:8f:1b:34:51:
         68:6e:66:6a:77:22:ec:a8:8a:14:ff:cc:3d:32:20:76:d9:a5:
         d1:fc:4c:60:35:dc:1e:38:a4:02:ee:65:8b:79:8e:65:6c:2d:
         dd:c8:54:70:c2:9e:03:29:a5:99:ac:9b:83:52:c4:19:1b:8e:
         f1:15:cd:71:c8:1d:0a:de
-----BEGIN CERTIFICATE-----
MIIE9zCCAt+gAwIBAgIBCzANBgkqhkiG9w0BAQUFADAeMQswCQYDVQQGEwJTRTEP
MA0GA1UEAwwGU3ViIENBMB4XDTE5MDUyMzE1MDUyMFoXDTM4MDExNjE1MDUyMFow
JTELMAkGA1UEBhMCU0UxFjAUBgNVBAMMDVRlc3Qgc3ViIGNlcnQwggIiMA0GCSqG
SIb3DQEBAQUAA4ICDwAwggIKAoICAQCwuXf0XeJmfRAWqiQWOxONrbEAEutJFI1z
OuLu9/4TmNrZ1nLijqncxtlchuYD/Sml3kYFAk+peSVhX/dTZAPNLp3IQ9lFSBR+
Wa7GrSV4EHFXQzBFZdQMXVKRl9y4kzhkmgtP2hb3G46q9eXMPQ2Eutf9+V9K7cPI
Nmb0QvxdACt9e4tRlDWpJzpx+6z1L+TSi8Yi5eWjGxOVPg8NPgcfbiOwXfdgAeUI
hQGsSDEyOB5X6Bs8OMNwOoEbBGA7xyCpiv65xUvHECgyCnwd849c0Coug5c6X0I0
lRvEsXP/I6nm+5/0QC4vwK2f1sJFIUBR+S6Y25A0PvZU5fzM1QZMGYFTr72hjYM6
tccbhXjcZGX47Yi2aU3AO9qb1esy4OAcAGXn8FvxvOLoiqUxntba08Mv0ISa8/Et
4bNjPirOyZhFG36KvC8K8TmCOXDQ9ygYOnTr0EznmeXmsfczV2AUzyskWe0w9qWx
a1Q9dO9ofGmxNegbngrUOCfqfB4BEUZOB7LaAPWMpabQfySn2TKiv26SoxaDHe10
5j9rqxsjZYQyUZQvHgEdE7ezbsIuZ70zjkFEFCkHkgGZLfasUSajRGdezQ4154ND
OiB4YyNM7vRbMg8XSRTWFJ3UMi22FUIqfh86kN/fkm24QeM5KdnCLL+UZ56pixAU
OsoKEM+kXQIDAQABozkwNzAJBgNVHRMEAjAAMAsGA1UdDwQEAwIF4DAdBgNVHQ4E
FgQUyPxMdA1CGI4KS3xhx802/amWjmQwDQYJKoZIhvcNAQEFBQADggIBAFxl3mjI
gDuLCHQt9IlRQn6sQYPQf//L1JWEEFL5L3diBLkDj6WyFpIZyZRirjorc4lZcy7j
BQUK3OQAvmv8Hq2S4o0dqOJxbhA7UF0cwZfnShTDHpqjTOZfSv4hQ5Th5RF8Qsa3
BtURRV08v+edm04Km3qUCe2x+wfELxaji5JQI7ZcM/osOYM6apLSAKjgpyglirYJ
7hdq8744yEgELoGWnAiiO0hu8nXYWwcAE2QfpaF+v9Gk+l9hVUBninYxKBz4p/Ce
u+C9GIlsnOchn0mrPxtDEsNN/Mzn9ExPwEVbMPebCWCnRqXwi+qrYng8eszqCSv3
fAYEsvcxaLAl4H6/ULWjtvMdwEKV2Xn2jpTMtNr55v56RJOACyXZVGmO2H4IqGNV
Zzwyh1JzOPoK4EysHrF9vInupdZ57Xksl/DGpB//yh44qYYiRtP/aUSqfJ3ANdOZ
A4ZetNDkFsnxgxZfuLmgixbCMRctWd6nsBbMYxAWFyDP468CkkjTZDhEnBapYlu+
f8gfTmnWRDWSzWn85SNgTqOTkh+qbq53zGP+/0kQEMQ8UzQc2VFB2HOGXtWoIjiw
IDoRP6BQukqtjxs0UWhuZmp3IuyoihT/zD0yIHbZpdH8TGA13B44pALuZYt5jmVs
Ld3IVHDCngMppZmsm4NSxBkbjvEVzXHIHQre
-----END CERTIFICATE-----
