Certificate:
    Data:
        Version: 3 (0x2)
        Serial Number: 4 (0x4)
    Signature Algorithm: sha1WithRSAEncryption
        Issuer: CN=hx509 Test Root CA, C=SE
        Validity
            Not Before: May 23 15:05:13 2019 GMT
            Not After : Jan 16 15:05:13 2038 GMT
        Subject: C=SE, CN=Test cert KeyEncipherment
        Subject Public Key Info:
            Public Key Algorithm: rsaEncryption
                Public-Key: (4096 bit)
                Modulus:
                    00:cc:e5:88:ad:77:9f:da:7d:88:28:88:b6:0f:e6:
                    f6:2b:a1:55:da:7e:4e:75:8b:46:8c:e6:9c:f6:c4:
                    06:ea:68:0e:85:7d:c4:d6:bb:a9:c5:82:3a:88:9e:
                    d1:e5:71:f9:2b:2e:48:62:f7:ac:7a:de:cc:f4:ae:
                    07:da:86:2f:07:21:be:ec:f5:de:3b:0c:d0:66:88:
                    a7:75:0a:ee:17:c6:9e:b3:2f:9b:b0:88:3a:ad:de:
                    b3:bd:36:2d:20:30:9e:36:f0:3b:9d:e2:5f:4a:d4:
                    1c:42:49:29:5b:70:35:02:40:79:82:a7:9d:ee:a7:
                    05:85:d0:75:46:c2:77:4c:b9:20:6f:93:4a:85:8f:
                    fa:44:08:6a:ef:26:7f:af:20:e7:b3:a2:18:4d:78:
                    dc:e6:5e:c1:06:aa:54:a3:6c:07:a0:6b:92:14:f0:
                    52:62:cf:d1:c4:08:81:4e:73:3b:27:19:34:a0:32:
                    0d:66:70:05:ca:3e:13:18:85:18:d6:9c:30:b9:66:
                    93:af:df:ff:71:07:ab:77:ab:00:32:d5:c4:64:7f:
                    af:06:e6:aa:7d:90:e3:7b:82:46:1b:d8:42:f5:7a:
                    15:5f:b3:ca:b2:4d:e6:8d:65:29:ff:aa:88:73:15:
                    85:21:69:23:a6:24:48:95:8e:a4:e5:2e:a0:c9:e2:
                    75:bf:79:85:1d:b9:2a:e8:da:b2:fa:15:f9:c2:1b:
                    b3:69:3b:01:9c:54:4b:2b:19:ef:b8:f7:60:d9:78:
                    8b:a8:b8:84:e4:0a:73:21:22:de:d8:27:9b:a7:7d:
                    61:dc:da:55:8f:c0:36:4e:e4:99:8b:1b:44:03:d2:
                    51:24:37:d5:2e:a2:32:7c:65:20:0a:4a:9b:9f:8f:
                    ea:16:7b:ac:fe:cf:57:a3:dc:75:98:4d:35:84:cf:
                    20:63:39:d4:13:34:7e:f7:10:e5:ec:31:d9:5d:1d:
                    bd:e3:d9:c1:b7:ef:ce:39:d0:89:0e:b8:84:f5:9e:
                    5b:1e:da:48:1a:32:d3:0d:95:92:02:e2:bb:19:6f:
                    09:f6:6e:38:38:3c:56:1a:0c:38:81:d9:a0:d2:ac:
                    99:18:43:33:e9:0c:1c:cb:f1:80:1c:7d:9e:e3:07:
                    41:24:51:82:a5:04:00:fb:77:dd:9e:7d:7e:04:32:
                    40:d6:da:76:1a:88:77:37:64:34:44:e9:b6:c5:45:
                    50:54:28:bd:dc:aa:a8:53:f3:4c:26:77:89:56:be:
                    d6:89:82:83:d6:0e:27:0a:8b:ab:7b:aa:51:d8:4d:
                    e4:d5:4f:b1:27:0d:cf:80:ba:e1:ab:51:f2:47:45:
                    30:34:e2:55:a8:55:cd:03:c8:f7:12:0c:78:ac:05:
                    2c:99:47
                Exponent: 65537 (0x10001)
        X509v3 extensions:
            X509v3 Basic Constraints: 
                CA:FALSE
            X509v3 Key Usage: 
                Non Repudiation, Key Encipherment
            X509v3 Subject Key Identifier: 
                A1:E1:E0:08:58:84:EB:A7:1E:0E:7C:44:D0:E7:CA:B2:BC:93:8F:2B
    Signature Algorithm: sha1WithRSAEncryption
         62:5e:48:de:71:64:4f:fd:94:97:49:a0:1d:a0:50:f1:6f:56:
         d6:90:79:51:a0:8c:04:c5:d3:ec:d2:e0:d6:4d:0e:ab:19:55:
         0c:9e:e2:5d:e8:5b:8c:cd:14:c3:b6:28:ff:21:f7:21:37:9f:
         0b:6e:cd:52:22:eb:61:23:4a:28:ce:80:c7:68:41:a7:4b:9a:
         4f:9d:b2:8f:04:6d:6f:57:f1:91:e9:a4:d7:26:f9:78:c9:c2:
         6d:e0:d7:25:9c:12:91:73:eb:2b:1e:e7:32:3f:46:1e:58:56:
         a1:fc:b9:9a:dc:85:8f:1e:51:a8:a8:d8:5b:cb:18:75:ea:1b:
         9c:75:66:50:a1:9a:95:0f:50:8b:54:1a:7b:5f:4e:5a:c3:31:
         1a:c4:11:81:31:d2:35:4a:d0:be:13:70:63:9f:b5:0d:6c:ce:
         08:e9:fa:5e:41:28:92:74:f9:26:37:26:18:ca:44:b6:d7:ca:
         1b:63:22:c1:71:86:4f:fc:e8:ef:fd:e8:ef:b6:f1:2d:a1:7a:
         e4:b5:12:f5:8e:60:fe:bc:de:8f:a9:c2:4a:29:60:f4:1b:26:
         7a:0f:cd:34:94:a4:d2:56:21:b0:33:a9:4d:7f:fc:6c:d8:71:
         17:8a:1b:d6:e5:78:98:76:f0:8d:d1:0e:85:bc:69:36:ec:99:
         d6:56:13:22:35:9a:dc:43:b4:f2:d7:6f:25:6d:7c:6e:70:54:
         53:c4:fb:4f:33:c0:20:f9:fd:4e:51:b1:e9:fa:65:05:cc:09:
         d6:47:4e:3a:a0:8c:bc:e9:fe:1b:07:b7:06:3c:62:05:17:a5:
         9e:46:79:04:9c:20:41:77:f9:50:e8:f3:86:0f:72:63:c9:6e:
         74:1b:1e:dd:ef:e4:b7:a0:e6:83:3d:d7:38:a0:8a:80:c9:3d:
         1b:ca:7b:96:ce:ac:37:a8:b9:51:30:98:d5:60:b5:26:c8:53:
         a1:7a:ab:18:2c:36:22:83:9f:95:19:8a:78:2d:17:e4:aa:d5:
         37:e9:1e:fe:2a:ae:34:64:d4:9d:a7:0a:a9:a8:1b:c3:29:38:
         89:e7:57:4f:8b:f6:3b:74:4c:39:82:ce:36:2e:24:ab:90:fb:
         dd:da:ec:eb:81:3a:66:0c:01:d6:03:8c:00:39:b0:83:96:51:
         7f:27:0e:e5:8c:d4:ba:c7:6b:f4:13:b9:ba:5a:02:71:44:62:
         21:33:51:6d:93:6b:04:6b:dd:e1:64:f5:3f:ca:98:39:b1:91:
         94:68:3d:1f:ea:91:b8:db:98:c3:a5:82:aa:24:b2:32:e3:f6:
         8e:7e:8f:e3:eb:0c:57:1f:27:70:10:d0:97:db:7a:8f:46:d9:
         8f:db:ff:5f:2d:ff:a2:fd
-----BEGIN CERTIFICATE-----
MIIFDzCCAvegAwIBAgIBBDANBgkqhkiG9w0BAQUFADAqMRswGQYDVQQDDBJoeDUw
OSBUZXN0IFJvb3QgQ0ExCzAJBgNVBAYTAlNFMB4XDTE5MDUyMzE1MDUxM1oXDTM4
MDExNjE1MDUxM1owMTELMAkGA1UEBhMCU0UxIjAgBgNVBAMMGVRlc3QgY2VydCBL
ZXlFbmNpcGhlcm1lbnQwggIiMA0GCSqGSIb3DQEBAQUAA4ICDwAwggIKAoICAQDM
5Yitd5/afYgoiLYP5vYroVXafk51i0aM5pz2xAbqaA6FfcTWu6nFgjqIntHlcfkr
Lkhi96x63sz0rgfahi8HIb7s9d47DNBmiKd1Cu4Xxp6zL5uwiDqt3rO9Ni0gMJ42
8Dud4l9K1BxCSSlbcDUCQHmCp53upwWF0HVGwndMuSBvk0qFj/pECGrvJn+vIOez
ohhNeNzmXsEGqlSjbAega5IU8FJiz9HECIFOczsnGTSgMg1mcAXKPhMYhRjWnDC5
ZpOv3/9xB6t3qwAy1cRkf68G5qp9kON7gkYb2EL1ehVfs8qyTeaNZSn/qohzFYUh
aSOmJEiVjqTlLqDJ4nW/eYUduSro2rL6FfnCG7NpOwGcVEsrGe+492DZeIuouITk
CnMhIt7YJ5unfWHc2lWPwDZO5JmLG0QD0lEkN9UuojJ8ZSAKSpufj+oWe6z+z1ej
3HWYTTWEzyBjOdQTNH73EOXsMdldHb3j2cG378450IkOuIT1nlse2kgaMtMNlZIC
4rsZbwn2bjg4PFYaDDiB2aDSrJkYQzPpDBzL8YAcfZ7jB0EkUYKlBAD7d92efX4E
MkDW2nYaiHc3ZDRE6bbFRVBUKL3cqqhT80wmd4lWvtaJgoPWDicKi6t7qlHYTeTV
T7EnDc+AuuGrUfJHRTA04lWoVc0DyPcSDHisBSyZRwIDAQABozkwNzAJBgNVHRME
AjAAMAsGA1UdDwQEAwIFYDAdBgNVHQ4EFgQUoeHgCFiE66ceDnxE0OfKsryTjysw
DQYJKoZIhvcNAQEFBQADggIBAGJeSN5xZE/9lJdJoB2gUPFvVtaQeVGgjATF0+zS
4NZNDqsZVQye4l3oW4zNFMO2KP8h9yE3nwtuzVIi62EjSijOgMdoQadLmk+dso8E
bW9X8ZHppNcm+XjJwm3g1yWcEpFz6yse5zI/Rh5YVqH8uZrchY8eUaio2FvLGHXq
G5x1ZlChmpUPUItUGntfTlrDMRrEEYEx0jVK0L4TcGOftQ1szgjp+l5BKJJ0+SY3
JhjKRLbXyhtjIsFxhk/86O/96O+28S2heuS1EvWOYP683o+pwkopYPQbJnoPzTSU
pNJWIbAzqU1//GzYcReKG9bleJh28I3RDoW8aTbsmdZWEyI1mtxDtPLXbyVtfG5w
VFPE+08zwCD5/U5Rsen6ZQXMCdZHTjqgjLzp/hsHtwY8YgUXpZ5GeQScIEF3+VDo
84YPcmPJbnQbHt3v5Leg5oM91zigioDJPRvKe5bOrDeouVEwmNVgtSbIU6F6qxgs
NiKDn5UZingtF+Sq1TfpHv4qrjRk1J2nCqmoG8MpOInnV0+L9jt0TDmCzjYuJKuQ
+93a7OuBOmYMAdYDjAA5sIOWUX8nDuWM1LrHa/QTubpaAnFEYiEzUW2TawRr3eFk
9T/KmDmxkZRoPR/qkbjbmMOlgqoksjLj9o5+j+PrDFcfJ3AQ0Jfbeo9G2Y/b/18t
/6L9
-----END CERTIFICATE-----
