Certificate:
    Data:
        Version: 3 (0x2)
        Serial Number: 5 (0x5)
    Signature Algorithm: sha1WithRSAEncryption
        Issuer: CN=hx509 Test Root CA, C=SE
        Validity
            Not Before: May 23 15:05:14 2019 GMT
            Not After : Jan 16 15:05:14 2038 GMT
        Subject: C=SE, CN=Test cert DigitalSignature
        Subject Public Key Info:
            Public Key Algorithm: rsaEncryption
                Public-Key: (4096 bit)
                Modulus:
                    00:db:8d:a2:5f:bd:67:a2:66:d7:80:3d:9b:5e:d7:
                    31:5b:05:06:4f:0c:aa:5c:e8:0b:06:bc:30:8f:f9:
                    fc:b3:1d:de:4f:c4:18:0d:7a:ab:00:7a:7e:5d:b2:
                    fd:85:d8:22:9d:d8:b7:e2:e8:98:e6:47:b6:63:01:
                    90:d5:e9:80:c7:ac:e4:32:bf:df:10:af:73:11:d2:
                    82:21:bf:5b:76:37:d2:03:67:c5:9a:7b:44:a5:4a:
                    4e:a6:05:d3:95:09:fb:13:3a:7a:ca:b9:4f:28:24:
                    e2:cb:75:ee:6d:97:a6:62:fb:bc:57:ed:6e:2f:e9:
                    0a:7f:61:4b:c7:9a:45:7c:49:5d:03:fe:4e:09:8b:
                    9c:30:60:67:42:0f:89:44:08:0b:4e:65:96:6f:f8:
                    83:27:10:de:99:7a:8d:bc:e1:ab:23:cd:d2:83:57:
                    0f:5a:99:26:dd:6e:16:3b:d5:4d:7e:4d:d1:85:e8:
                    37:44:69:de:ea:9e:79:af:eb:b3:6f:87:0b:23:97:
                    53:81:b3:e4:64:2a:1d:f9:2c:6d:54:63:15:8e:39:
                    9c:70:b0:c1:85:91:be:21:4b:4d:73:21:0a:59:fc:
                    20:b9:60:6c:7d:ca:ed:ab:e7:22:79:cf:c4:5b:bc:
                    9e:fe:90:ec:e7:48:c0:0d:60:2c:6d:db:bb:ed:95:
                    70:cc:14:b4:45:9b:9b:45:92:fa:d2:50:ab:5a:60:
                    1b:96:6c:81:d7:2a:4f:60:df:29:38:26:9a:7b:ea:
                    68:e8:cf:dc:c3:25:a8:2a:d4:79:ea:69:7b:96:2d:
                    2d:aa:8c:39:1e:9c:00:bf:51:8c:66:4b:14:20:f0:
                    cb:3a:19:b2:03:5c:78:63:72:56:bf:8f:fa:49:19:
                    98:d0:25:1b:24:ad:85:51:1f:07:d9:72:94:70:7d:
                    47:b1:9d:88:86:26:d5:01:d6:10:c9:04:60:01:b7:
                    c5:5d:6f:e6:10:c4:7e:85:87:b6:8b:ce:15:ec:79:
                    bb:05:83:3d:98:91:90:42:5a:28:f9:1f:65:07:63:
                    15:97:3d:8d:c2:33:f8:9c:70:c2:a5:53:6d:90:db:
                    6c:15:30:1e:6f:a1:09:8e:e5:56:79:fd:7e:11:f8:
                    bd:44:5c:99:35:7c:56:03:1a:bf:15:fa:1f:08:8f:
                    1f:82:a8:2e:c3:a5:f4:94:a1:4e:9f:ef:4b:c6:6f:
                    af:12:ee:ee:c0:c0:39:3e:47:bf:17:6e:09:c6:8c:
                    47:89:b0:a3:26:92:95:91:38:07:c9:eb:5e:2b:8a:
                    65:c1:26:21:60:68:f1:27:5b:76:7e:a8:81:25:31:
                    6e:14:06:08:09:62:13:9c:c8:af:01:e8:9b:4a:9e:
                    18:b1:35
                Exponent: 65537 (0x10001)
        X509v3 extensions:
            X509v3 Basic Constraints: 
                CA:FALSE
            X509v3 Key Usage: 
                Digital Signature, Non Repudiation
            X509v3 Subject Key Identifier: 
                6B:E9:29:4E:C6:18:4A:A0:2F:A9:AC:67:3D:F7:80:7C:CE:8A:97:66
    Signature Algorithm: sha1WithRSAEncryption
         9e:b3:b6:2d:27:65:c4:2e:2a:a2:f1:d6:3c:ba:4b:c6:b9:47:
         fe:72:5a:fe:f4:f7:92:4c:17:7c:f5:88:91:eb:f9:1a:6a:c3:
         82:a9:8b:6f:4e:e1:62:d2:15:d8:50:12:aa:cf:ef:2e:73:2a:
         86:cb:59:49:1a:35:17:4e:c4:2e:ac:65:5a:f0:13:da:35:78:
         20:59:e7:f9:8c:9a:97:0f:76:cf:cf:2d:79:69:b2:9f:15:77:
         d9:af:20:ff:ab:07:18:f4:ef:5d:4d:c2:56:bc:fb:a6:52:aa:
         53:a3:5f:91:5b:83:61:e7:fe:c1:89:4f:57:c3:8a:ba:d2:89:
         ed:9f:28:b0:f7:18:25:dc:d1:e8:4e:f0:ef:50:70:e5:cf:6d:
         ba:1e:d9:98:11:13:02:53:15:9b:98:95:b2:8a:60:a4:6c:f9:
         c6:23:4a:9d:25:ce:31:fe:17:fc:1f:11:43:52:4c:45:ef:f6:
         38:c5:e7:94:98:34:3c:05:8f:d0:a1:82:71:9d:d1:ec:93:ef:
         7e:7d:9d:ba:2c:7d:82:14:e7:ce:8a:e1:e9:bf:6a:82:0b:44:
         1e:5d:1e:85:b4:81:0e:f2:c1:1c:54:8b:b1:e9:35:82:c2:44:
         23:22:b0:96:3a:ab:0e:6c:f0:24:41:e0:bf:62:86:01:1e:e2:
         29:af:d0:cd:06:83:84:66:a6:2a:32:d4:f8:f5:31:3f:d4:20:
         34:07:6e:78:d0:f7:a7:64:fa:d4:81:15:c0:71:bc:10:3c:44:
         8b:fc:f0:8b:03:7e:ca:9e:6f:e0:d2:f3:14:67:3b:ea:1b:79:
         59:3c:98:5d:70:3a:b4:87:d8:45:99:91:63:f6:db:7d:35:d3:
         39:df:ac:31:db:94:fc:90:c8:87:01:11:1b:10:9f:2f:15:53:
         5c:f2:5f:08:cb:72:d3:f6:ed:63:39:e9:45:b7:ae:bd:db:21:
         93:4a:fc:42:78:2b:db:ac:cd:ed:ca:f0:06:2a:f9:45:18:ed:
         de:31:3d:78:fd:94:a2:65:63:ba:ce:13:37:4a:ce:68:8b:39:
         eb:e1:24:d7:ea:ca:7f:25:d1:a3:63:97:8c:a9:f6:19:f9:68:
         d3:8a:0b:bf:2e:8a:db:58:9c:97:42:40:de:c3:b5:e8:84:d9:
         3b:02:56:7e:d7:83:ab:e0:4d:e0:49:4f:8a:bd:c1:e9:aa:90:
         c7:96:bb:09:e0:6c:77:1c:15:48:20:4e:95:6f:7e:87:59:33:
         75:da:5f:91:d6:35:65:67:15:a8:1f:1a:ff:23:c8:89:90:8c:
         38:a6:12:70:5f:78:c2:1b:ea:66:64:23:95:d2:b1:4c:fb:e1:
         ed:22:24:b0:3b:da:8f:1b
-----BEGIN CERTIFICATE-----
MIIFEDCCAvigAwIBAgIBBTANBgkqhkiG9w0BAQUFADAqMRswGQYDVQQDDBJoeDUw
OSBUZXN0IFJvb3QgQ0ExCzAJBgNVBAYTAlNFMB4XDTE5MDUyMzE1MDUxNFoXDTM4
MDExNjE1MDUxNFowMjELMAkGA1UEBhMCU0UxIzAhBgNVBAMMGlRlc3QgY2VydCBE
aWdpdGFsU2lnbmF0dXJlMIICIjANBgkqhkiG9w0BAQEFAAOCAg8AMIICCgKCAgEA
242iX71nombXgD2bXtcxWwUGTwyqXOgLBrwwj/n8sx3eT8QYDXqrAHp+XbL9hdgi
ndi34uiY5ke2YwGQ1emAx6zkMr/fEK9zEdKCIb9bdjfSA2fFmntEpUpOpgXTlQn7
Ezp6yrlPKCTiy3XubZemYvu8V+1uL+kKf2FLx5pFfEldA/5OCYucMGBnQg+JRAgL
TmWWb/iDJxDemXqNvOGrI83Sg1cPWpkm3W4WO9VNfk3Rheg3RGne6p55r+uzb4cL
I5dTgbPkZCod+SxtVGMVjjmccLDBhZG+IUtNcyEKWfwguWBsfcrtq+ciec/EW7ye
/pDs50jADWAsbdu77ZVwzBS0RZubRZL60lCrWmAblmyB1ypPYN8pOCaae+po6M/c
wyWoKtR56ml7li0tqow5HpwAv1GMZksUIPDLOhmyA1x4Y3JWv4/6SRmY0CUbJK2F
UR8H2XKUcH1HsZ2IhibVAdYQyQRgAbfFXW/mEMR+hYe2i84V7Hm7BYM9mJGQQloo
+R9lB2MVlz2NwjP4nHDCpVNtkNtsFTAeb6EJjuVWef1+Efi9RFyZNXxWAxq/Ffof
CI8fgqguw6X0lKFOn+9Lxm+vEu7uwMA5Pke/F24JxoxHibCjJpKVkTgHyeteK4pl
wSYhYGjxJ1t2fqiBJTFuFAYICWITnMivAeibSp4YsTUCAwEAAaM5MDcwCQYDVR0T
BAIwADALBgNVHQ8EBAMCBsAwHQYDVR0OBBYEFGvpKU7GGEqgL6msZz33gHzOipdm
MA0GCSqGSIb3DQEBBQUAA4ICAQCes7YtJ2XELiqi8dY8ukvGuUf+clr+9PeSTBd8
9YiR6/kaasOCqYtvTuFi0hXYUBKqz+8ucyqGy1lJGjUXTsQurGVa8BPaNXggWef5
jJqXD3bPzy15abKfFXfZryD/qwcY9O9dTcJWvPumUqpTo1+RW4Nh5/7BiU9Xw4q6
0ontnyiw9xgl3NHoTvDvUHDlz226HtmYERMCUxWbmJWyimCkbPnGI0qdJc4x/hf8
HxFDUkxF7/Y4xeeUmDQ8BY/QoYJxndHsk+9+fZ26LH2CFOfOiuHpv2qCC0QeXR6F
tIEO8sEcVIux6TWCwkQjIrCWOqsObPAkQeC/YoYBHuIpr9DNBoOEZqYqMtT49TE/
1CA0B2540PenZPrUgRXAcbwQPESL/PCLA37Knm/g0vMUZzvqG3lZPJhdcDq0h9hF
mZFj9tt9NdM536wx25T8kMiHAREbEJ8vFVNc8l8Iy3LT9u1jOelFt6692yGTSvxC
eCvbrM3tyvAGKvlFGO3eMT14/ZSiZWO6zhM3Ss5oiznr4STX6sp/JdGjY5eMqfYZ
+WjTigu/LorbWJyXQkDew7XohNk7AlZ+14Or4E3gSU+KvcHpqpDHlrsJ4Gx3HBVI
IE6Vb36HWTN12l+R1jVlZxWoHxr/I8iJkIw4phJwX3jCG+pmZCOV0rFM++HtIiSw
O9qPGw==
-----END CERTIFICATE-----
