Certificate:
    Data:
        Version: 3 (0x2)
        Serial Number: 2 (0x2)
    Signature Algorithm: sha1WithRSAEncryption
        Issuer: CN=hx509 Test Root CA, C=SE
        Validity
            Not Before: May 23 15:05:12 2019 GMT
            Not After : Jan 16 15:05:12 2038 GMT
        Subject: C=SE, CN=Test cert
        Subject Public Key Info:
            Public Key Algorithm: rsaEncryption
                Public-Key: (4096 bit)
                Modulus:
                    00:a9:c9:ce:f8:b7:77:99:3c:72:54:8c:cf:0a:63:
                    9d:f2:df:0d:07:6f:22:54:17:71:ff:76:a6:d1:9e:
                    33:f5:05:3f:ac:32:be:58:e5:7c:a7:d3:29:dd:3d:
                    38:62:64:8d:82:d2:aa:f5:05:36:f3:bc:ad:7f:4e:
                    b9:c5:56:89:ea:c2:d7:b1:96:69:fd:f7:4e:35:56:
                    59:7c:03:91:79:60:f4:a1:a8:78:a0:1a:04:2e:0a:
                    98:b7:cc:be:f3:ea:28:6a:d7:5e:80:8d:74:c7:f4:
                    d8:96:48:44:94:1b:ce:4f:9a:65:8d:54:c6:c4:69:
                    b3:be:fb:e4:91:79:5e:c5:ba:f9:df:03:de:14:e2:
                    68:1a:6a:e9:51:83:01:0f:e6:09:0f:c9:a1:78:b4:
                    75:45:18:f0:43:7c:11:37:b2:91:cd:50:6e:71:42:
                    69:c0:36:da:e1:bc:24:fa:bd:8f:c5:ce:ca:d4:af:
                    b3:f1:d7:20:c1:ac:4d:31:42:c5:cd:6e:6c:41:0c:
                    8e:8d:08:8f:2c:b0:76:02:18:d7:0d:0f:fe:ca:67:
                    3f:b6:fe:1b:36:a7:ca:33:bd:01:36:7e:97:f6:e3:
                    55:9c:4b:a5:fa:48:58:a7:07:ca:c8:71:2c:e9:05:
                    7e:3a:40:4a:aa:b7:34:13:e1:b0:5a:eb:58:50:0e:
                    99:31:bd:6f:e9:fb:bd:4b:f8:05:70:5e:01:41:36:
                    cf:cd:7f:6e:d1:e6:de:e7:23:a9:86:49:61:26:fc:
                    a9:58:a3:45:37:b2:47:fa:ee:cd:74:e1:a1:28:cc:
                    50:5f:e9:b0:fe:67:0b:7e:dc:4f:e9:fe:5d:ea:55:
                    9a:87:d0:13:6d:9e:b9:f1:cd:08:b3:da:c7:d2:3e:
                    dc:fa:d2:03:58:f7:e6:43:03:5b:c9:0d:ee:d6:26:
                    b0:fa:eb:36:5e:a3:d0:ae:cb:00:4c:97:bb:9a:63:
                    09:59:10:6b:c5:f9:e7:4a:3f:76:eb:a2:63:8f:45:
                    cc:43:8f:4a:15:2f:dc:3e:f2:11:3d:07:03:c4:b8:
                    c5:e5:65:1a:c7:d2:87:42:53:d3:a9:3f:fb:99:a0:
                    b8:45:43:45:ec:09:59:c9:bd:55:22:e0:0e:19:ed:
                    49:fd:b6:db:5c:84:b0:01:89:50:a3:ca:1e:41:ba:
                    82:87:db:da:b5:2b:71:08:ae:1b:70:41:41:ca:24:
                    70:6b:9a:c9:db:1d:b2:65:94:01:9d:ed:b8:b5:36:
                    4c:f0:f0:39:be:bf:e4:49:02:d4:55:ec:11:dd:23:
                    e3:6f:c1:28:99:77:44:29:70:a2:6e:ec:b2:53:86:
                    e1:c1:45:3c:67:ea:12:08:b3:be:d2:be:9f:00:b0:
                    9b:1f:61
                Exponent: 65537 (0x10001)
        X509v3 extensions:
            X509v3 Basic Constraints: 
                CA:FALSE
            X509v3 Key Usage: 
                Digital Signature, Non Repudiation, Key Encipherment
            X509v3 Subject Key Identifier: 
                D3:E1:59:20:A1:DE:3D:12:57:0A:3D:BA:0A:6E:67:0E:40:A7:9A:88
    Signature Algorithm: sha1WithRSAEncryption
         0f:2c:68:90:33:67:b2:86:09:26:ec:65:29:ae:76:d6:a6:2f:
         53:0e:d3:16:cd:2e:0d:a8:d1:14:22:f5:63:66:a9:3d:78:43:
         40:a9:db:ef:02:52:d1:a9:c3:0b:ad:24:8e:a0:56:63:1f:ba:
         23:48:64:74:ac:2c:bd:67:f8:87:6d:bf:d6:83:68:aa:99:ce:
         4c:0b:30:d6:06:59:7c:74:0e:2c:8b:ee:5a:61:af:ff:f7:3c:
         51:10:a7:93:44:6f:bb:f4:8b:5a:2b:5e:1c:4c:89:60:71:af:
         fd:bf:c0:fd:19:04:12:81:a0:ce:ed:b4:dc:64:12:80:36:18:
         9f:1c:33:25:94:dd:94:51:eb:a1:c6:21:06:b5:16:05:7d:d3:
         20:53:de:60:5d:40:6c:f1:7b:a1:98:7f:1a:bd:39:46:0a:ec:
         a6:cc:eb:7a:96:d5:43:6d:e5:c7:61:d2:f9:ed:76:a8:44:3f:
         c8:9d:45:1a:2c:3b:52:f8:08:7b:67:39:aa:ae:88:4f:eb:90:
         99:9c:f8:8b:ae:c7:7a:eb:40:b1:ea:78:51:74:e9:11:2c:c2:
         d7:c0:93:35:c3:27:59:89:dd:1e:e6:4a:ed:fd:dc:1f:08:e2:
         80:ce:a0:72:ec:04:d7:2c:1d:d6:2c:67:f3:b9:ce:e9:be:70:
         10:82:b5:bf:45:29:c1:cc:36:11:5d:83:3d:17:11:03:b0:17:
         e1:3c:05:f0:ea:07:c6:3e:62:ce:2b:d9:55:41:dc:0c:55:82:
         0f:e0:d5:a8:02:65:fa:c8:bd:60:16:b4:6d:53:08:9b:06:25:
         94:c7:8f:ee:ac:5d:25:ad:cd:9d:af:7f:a8:5a:99:49:fc:fb:
         ad:69:8e:c4:c9:57:7c:88:2c:32:2b:ec:11:ed:61:cc:44:92:
         a7:18:11:19:96:e6:be:88:5d:ed:0f:dc:ca:2a:31:e9:2d:aa:
         03:75:03:f4:42:5e:6c:86:b9:7f:b7:59:70:ba:09:b1:ba:28:
         3a:be:68:45:a0:2e:89:0b:ea:a6:d9:85:58:bf:54:1c:02:56:
         3a:d4:4f:88:7a:5e:c8:21:33:64:76:74:68:36:7a:a4:1c:a6:
         5b:b8:f1:ef:98:10:82:84:d4:df:2d:34:4b:6d:15:62:55:31:
         b2:78:93:33:37:20:db:a0:30:85:db:cf:00:7c:b3:b3:a2:a9:
         31:d7:06:fb:e7:ec:38:4f:3d:61:73:bf:b8:21:b0:c5:f8:3f:
         98:8d:db:aa:23:01:41:d4:3c:99:cb:ce:4a:ff:10:fe:a7:52:
         3b:8c:0f:30:6d:a4:4e:53:4d:60:2b:6a:05:ab:ef:b8:61:9c:
         a4:85:99:ae:b8:63:c8:e3
-----BEGIN CERTIFICATE-----
MIIE/zCCAuegAwIBAgIBAjANBgkqhkiG9w0BAQUFADAqMRswGQYDVQQDDBJoeDUw
OSBUZXN0IFJvb3QgQ0ExCzAJBgNVBAYTAlNFMB4XDTE5MDUyMzE1MDUxMloXDTM4
MDExNjE1MDUxMlowITELMAkGA1UEBhMCU0UxEjAQBgNVBAMMCVRlc3QgY2VydDCC
AiIwDQYJKoZIhvcNAQEBBQADggIPADCCAgoCggIBAKnJzvi3d5k8clSMzwpjnfLf
DQdvIlQXcf92ptGeM/UFP6wyvljlfKfTKd09OGJkjYLSqvUFNvO8rX9OucVWierC
17GWaf33TjVWWXwDkXlg9KGoeKAaBC4KmLfMvvPqKGrXXoCNdMf02JZIRJQbzk+a
ZY1UxsRps7775JF5XsW6+d8D3hTiaBpq6VGDAQ/mCQ/JoXi0dUUY8EN8ETeykc1Q
bnFCacA22uG8JPq9j8XOytSvs/HXIMGsTTFCxc1ubEEMjo0IjyywdgIY1w0P/spn
P7b+GzanyjO9ATZ+l/bjVZxLpfpIWKcHyshxLOkFfjpASqq3NBPhsFrrWFAOmTG9
b+n7vUv4BXBeAUE2z81/btHm3ucjqYZJYSb8qVijRTeyR/ruzXThoSjMUF/psP5n
C37cT+n+XepVmofQE22eufHNCLPax9I+3PrSA1j35kMDW8kN7tYmsPrrNl6j0K7L
AEyXu5pjCVkQa8X550o/duuiY49FzEOPShUv3D7yET0HA8S4xeVlGsfSh0JT06k/
+5mguEVDRewJWcm9VSLgDhntSf2221yEsAGJUKPKHkG6gofb2rUrcQiuG3BBQcok
cGuaydsdsmWUAZ3tuLU2TPDwOb6/5EkC1FXsEd0j42/BKJl3RClwom7sslOG4cFF
PGfqEgizvtK+nwCwmx9hAgMBAAGjOTA3MAkGA1UdEwQCMAAwCwYDVR0PBAQDAgXg
MB0GA1UdDgQWBBTT4Vkgod49ElcKPboKbmcOQKeaiDANBgkqhkiG9w0BAQUFAAOC
AgEADyxokDNnsoYJJuxlKa521qYvUw7TFs0uDajRFCL1Y2apPXhDQKnb7wJS0anD
C60kjqBWYx+6I0hkdKwsvWf4h22/1oNoqpnOTAsw1gZZfHQOLIvuWmGv//c8URCn
k0Rvu/SLWiteHEyJYHGv/b/A/RkEEoGgzu203GQSgDYYnxwzJZTdlFHrocYhBrUW
BX3TIFPeYF1AbPF7oZh/Gr05RgrspszrepbVQ23lx2HS+e12qEQ/yJ1FGiw7UvgI
e2c5qq6IT+uQmZz4i67HeutAsep4UXTpESzC18CTNcMnWYndHuZK7f3cHwjigM6g
cuwE1ywd1ixn87nO6b5wEIK1v0Upwcw2EV2DPRcRA7AX4TwF8OoHxj5izivZVUHc
DFWCD+DVqAJl+si9YBa0bVMImwYllMeP7qxdJa3Nna9/qFqZSfz7rWmOxMlXfIgs
MivsEe1hzESSpxgRGZbmvohd7Q/cyiox6S2qA3UD9EJebIa5f7dZcLoJsbooOr5o
RaAuiQvqptmFWL9UHAJWOtRPiHpeyCEzZHZ0aDZ6pBymW7jx75gQgoTU3y00S20V
YlUxsniTMzcg26AwhdvPAHyzs6KpMdcG++fsOE89YXO/uCGwxfg/mI3bqiMBQdQ8
mcvOSv8Q/qdSO4wPMG2kTlNNYCtqBavvuGGcpIWZrrhjyOM=
-----END CERTIFICATE-----
