Certificate:
    Data:
        Version: 3 (0x2)
        Serial Number: 7760573232607207430 (0x6bb3183cdef52006)
        Signature Algorithm: sha256WithRSAEncryption
        Issuer: C=UA, ST=Kharkiv Oblast', L=Kharkiv, O=Internet Systems Consortium, CN=ca.test.example.com
        Validity
            Not Before: Aug 15 08:00:00 2012 GMT
            Not After : Aug 15 09:00:00 2012 GMT
        Subject: CN=srv01.crt03-expired.example.com
        Subject Public Key Info:
            Public Key Algorithm: id-ecPublicKey
                Public-Key: (384 bit)
                pub:
                    04:1f:d5:7b:ab:73:b2:70:15:fd:33:26:02:5c:76:
                    16:80:0c:70:7d:57:83:75:ac:3c:b7:4a:02:46:35:
                    c1:1b:c1:7a:bd:be:f2:04:9a:7f:69:83:7f:54:9a:
                    1b:10:62:d7:70:bd:ef:26:90:51:50:10:77:56:b7:
                    1a:2f:44:5e:91:46:36:e1:2e:a4:4c:67:2e:62:a8:
                    7f:1a:15:10:44:68:8b:18:ea:cf:b8:96:09:bf:b5:
                    3a:d1:ef:10:8f:9f:bb
                ASN1 OID: secp384r1
                NIST CURVE: P-384
        X509v3 extensions:
            X509v3 Subject Alternative Name:
                DNS:srv01.crt03-expired.example.com, IP Address:10.53.0.1, IP Address:FD92:7065:B8E:FFFF:0:0:0:1
    Signature Algorithm: sha256WithRSAEncryption
         25:35:08:f6:e7:f0:83:81:be:65:31:1b:78:a8:04:84:fe:6a:
         2a:1a:5d:c1:73:20:88:08:11:d8:27:be:a5:8e:3c:df:e2:a6:
         19:c5:41:40:ea:01:91:85:99:8d:17:4e:4d:9a:3c:03:f9:78:
         4c:8a:20:41:5e:96:d6:64:83:2f:b2:fe:e7:77:09:f9:91:bd:
         22:1a:57:8b:f6:24:bc:7b:48:2b:2e:14:b7:32:bd:46:91:99:
         5e:21:9a:d3:15:a7:27:e1:c0:3a:c7:f5:f9:94:3f:6d:14:7e:
         0b:02:bf:05:d9:ac:10:8a:7e:b0:37:36:cd:cb:4a:b4:e1:01:
         c7:04:8d:83:f3:c6:79:ff:ff:6c:f0:a4:bf:3c:12:61:ea:15:
         ac:30:62:26:e3:c3:4e:7d:5c:68:d8:88:de:35:8d:44:75:8c:
         a8:c1:0d:07:67:b5:d0:42:43:41:1f:39:a0:47:35:46:d7:0f:
         89:aa:e8:d3:86:45:9a:fb:33:01:06:23:64:53:24:48:5b:69:
         fa:cf:d9:81:fb:5e:7e:7b:82:65:56:c6:46:65:5c:e1:4f:f2:
         3c:09:3c:28:5f:c9:e3:a5:24:e3:7b:aa:b5:b1:8a:6a:b2:02:
         32:5f:24:05:f1:67:c8:54:17:0c:cd:ca:3d:e4:44:3e:23:3a:
         7c:63:b6:f9:61:3a:21:e7:8f:27:ad:c3:26:86:39:49:6c:41:
         40:7f:1d:48:69:8d:db:6f:42:e4:09:fe:24:62:bd:8e:2e:54:
         25:f0:14:c2:d8:43:95:09:2e:5f:72:4f:43:b5:9a:8b:bb:8c:
         44:c6:77:c9:05:fb:1a:9f:d7:b6:a6:42:d9:5c:3d:a5:09:0f:
         9e:e0:c7:06:32:f1:ff:c9:53:5e:42:d4:2a:33:ad:06:ea:ec:
         b0:26:d3:3c:ef:65:af:15:8e:7b:20:49:ad:f1:56:ef:17:6b:
         fc:f4:d8:7c:82:9f:30:19:d0:bc:9c:79:e2:dc:9d:a7:f9:6b:
         6f:65:ae:21:a0:94
-----BEGIN CERTIFICATE-----
MIIDQTCCAamgAwIBAgIIa7MYPN71IAYwDQYJKoZIhvcNAQELBQAwfTELMAkGA1UE
BhMCVUExGDAWBgNVBAgMD0toYXJraXYgT2JsYXN0JzEQMA4GA1UEBwwHS2hhcmtp
djEkMCIGA1UECgwbSW50ZXJuZXQgU3lzdGVtcyBDb25zb3J0aXVtMRwwGgYDVQQD
DBNjYS50ZXN0LmV4YW1wbGUuY29tMB4XDTEyMDgxNTA4MDAwMFoXDTEyMDgxNTA5
MDAwMFowKjEoMCYGA1UEAwwfc3J2MDEuY3J0MDMtZXhwaXJlZC5leGFtcGxlLmNv
bTB2MBAGByqGSM49AgEGBSuBBAAiA2IABB/Ve6tzsnAV/TMmAlx2FoAMcH1Xg3Ws
PLdKAkY1wRvBer2+8gSaf2mDf1SaGxBi13C97yaQUVAQd1a3Gi9EXpFGNuEupExn
LmKofxoVEERoixjqz7iWCb+1OtHvEI+fu6NGMEQwQgYDVR0RBDswOYIfc3J2MDEu
Y3J0MDMtZXhwaXJlZC5leGFtcGxlLmNvbYcECjUAAYcQ/ZJwZQuO//8AAAAAAAAA
ATANBgkqhkiG9w0BAQsFAAOCAYEAJTUI9ufwg4G+ZTEbeKgEhP5qKhpdwXMgiAgR
2Ce+pY483+KmGcVBQOoBkYWZjRdOTZo8A/l4TIogQV6W1mSDL7L+53cJ+ZG9IhpX
i/YkvHtIKy4UtzK9RpGZXiGa0xWnJ+HAOsf1+ZQ/bRR+CwK/BdmsEIp+sDc2zctK
tOEBxwSNg/PGef//bPCkvzwSYeoVrDBiJuPDTn1caNiI3jWNRHWMqMENB2e10EJD
QR85oEc1RtcPiaro04ZFmvszAQYjZFMkSFtp+s/ZgftefnuCZVbGRmVc4U/yPAk8
KF/J46Uk43uqtbGKarICMl8kBfFnyFQXDM3KPeREPiM6fGO2+WE6IeePJ63DJoY5
SWxBQH8dSGmN229C5An+JGK9ji5UJfAUwthDlQkuX3JPQ7Wai7uMRMZ3yQX7Gp/X
tqZC2Vw9pQkPnuDHBjLx/8lTXkLUKjOtBurssCbTPO9lrxWOeyBJrfFW7xdr/PTY
fIKfMBnQvJx54tydp/lrb2WuIaCU
-----END CERTIFICATE-----
