Certificate:
    Data:
        Version: 3 (0x2)
        Serial Number: 7760573232607207425 (0x6bb3183cdef52001)
        Signature Algorithm: sha256WithRSAEncryption
        Issuer: C=UA, ST=Kharkiv Oblast', L=Kharkiv, O=Internet Systems Consortium, CN=ca.test.example.com
        Validity
            Not Before: Feb  8 17:18:52 2022 GMT
            Not After : Feb  1 17:18:52 2052 GMT
        Subject: CN=srv01.crt01.example.com
        Subject Public Key Info:
            Public Key Algorithm: id-ecPublicKey
                Public-Key: (384 bit)
                pub:
                    04:12:a1:7b:0f:79:f2:29:f5:8f:6a:06:d0:28:83:
                    14:43:8f:19:4c:29:91:36:30:0f:06:a6:56:e7:57:
                    9b:58:2c:9e:fc:9c:a3:4e:f6:e3:6f:90:40:d5:09:
                    fd:94:96:8e:14:68:74:6f:e8:a7:a7:ab:8c:35:96:
                    f2:d6:8f:5d:97:5d:d1:b9:22:5b:ef:31:15:a1:e1:
                    eb:6d:6f:af:b1:2f:80:e5:a5:a9:38:f2:6f:f9:65:
                    14:70:a7:a5:ac:e1:1a
                ASN1 OID: secp384r1
                NIST CURVE: P-384
        X509v3 extensions:
            X509v3 Subject Alternative Name:
                DNS:srv01.crt01.example.com, IP Address:10.53.0.1, IP Address:FD92:7065:B8E:FFFF:0:0:0:1
    Signature Algorithm: sha256WithRSAEncryption
         79:0f:08:ab:18:cc:f9:7a:bd:47:21:99:a1:a3:76:04:7f:d7:
         08:33:91:49:3d:2d:fc:8d:ff:c5:c1:8d:b8:70:05:65:32:cd:
         e2:26:21:49:19:66:a2:94:4f:42:7d:83:3c:4f:ed:c1:87:89:
         5b:73:2c:64:64:67:29:f5:73:83:23:72:b7:a8:2e:d6:9a:de:
         13:0c:ba:35:d3:38:b1:c4:51:7d:81:fc:25:ca:a6:d9:d2:fa:
         bb:6d:1f:a4:61:90:50:2d:8a:ed:70:1a:eb:56:2f:fc:7b:f3:
         76:df:68:8d:e8:a4:7d:82:b9:5c:c6:cb:d8:06:f7:78:dc:a7:
         94:35:d4:83:98:28:51:36:1c:73:47:e4:5b:32:d2:cd:de:1c:
         44:f6:de:37:8a:46:d0:14:8d:71:e5:10:22:b1:f9:73:f7:1b:
         4f:82:e1:a1:00:73:18:17:71:a2:bf:a2:0c:59:aa:43:58:46:
         82:f8:38:c4:5a:5a:9f:13:d7:a9:54:1f:58:9b:5d:52:16:d3:
         a0:ba:6b:aa:cf:68:3a:d1:12:9c:94:ac:78:6b:7e:bc:69:6c:
         75:07:5d:fb:68:cd:e8:8d:bb:8c:b0:7c:6c:9e:f6:a5:7c:32:
         74:ef:c5:b1:1f:1d:ec:7b:2f:79:c0:3b:52:60:9b:48:89:09:
         b4:46:34:69:d3:7b:1b:15:ef:0c:dd:64:1d:58:fe:a7:0b:b1:
         9d:28:1f:1e:9e:3c:c0:b1:a6:38:ab:9d:54:24:0e:75:6c:9e:
         90:13:b9:39:dc:43:fe:37:e3:14:0f:78:7e:2b:56:a2:d2:60:
         51:57:88:3b:4c:cf:24:67:36:77:21:bb:c8:07:eb:48:f7:b0:
         1e:e4:99:61:84:15:bb:61:3a:21:55:df:31:43:67:73:8f:6b:
         e9:04:83:be:2d:8b:94:39:89:cf:40:d5:04:f7:6b:c9:c6:8c:
         6e:36:0f:5d:7a:9b:57:86:36:76:2c:75:35:47:50:ed:9a:84:
         7e:37:83:b5:21:a2
-----BEGIN CERTIFICATE-----
MIIDMzCCAZugAwIBAgIIa7MYPN71IAEwDQYJKoZIhvcNAQELBQAwfTELMAkGA1UE
BhMCVUExGDAWBgNVBAgMD0toYXJraXYgT2JsYXN0JzEQMA4GA1UEBwwHS2hhcmtp
djEkMCIGA1UECgwbSW50ZXJuZXQgU3lzdGVtcyBDb25zb3J0aXVtMRwwGgYDVQQD
DBNjYS50ZXN0LmV4YW1wbGUuY29tMCAXDTIyMDIwODE3MTg1MloYDzIwNTIwMjAx
MTcxODUyWjAiMSAwHgYDVQQDDBdzcnYwMS5jcnQwMS5leGFtcGxlLmNvbTB2MBAG
ByqGSM49AgEGBSuBBAAiA2IABBKhew958in1j2oG0CiDFEOPGUwpkTYwDwamVudX
m1gsnvyco07242+QQNUJ/ZSWjhRodG/op6erjDWW8taPXZdd0bkiW+8xFaHh621v
r7EvgOWlqTjyb/llFHCnpazhGqM+MDwwOgYDVR0RBDMwMYIXc3J2MDEuY3J0MDEu
ZXhhbXBsZS5jb22HBAo1AAGHEP2ScGULjv//AAAAAAAAAAEwDQYJKoZIhvcNAQEL
BQADggGBAHkPCKsYzPl6vUchmaGjdgR/1wgzkUk9LfyN/8XBjbhwBWUyzeImIUkZ
ZqKUT0J9gzxP7cGHiVtzLGRkZyn1c4MjcreoLtaa3hMMujXTOLHEUX2B/CXKptnS
+rttH6RhkFAtiu1wGutWL/x783bfaI3opH2CuVzGy9gG93jcp5Q11IOYKFE2HHNH
5Fsy0s3eHET23jeKRtAUjXHlECKx+XP3G0+C4aEAcxgXcaK/ogxZqkNYRoL4OMRa
Wp8T16lUH1ibXVIW06C6a6rPaDrREpyUrHhrfrxpbHUHXftozeiNu4ywfGye9qV8
MnTvxbEfHex7L3nAO1Jgm0iJCbRGNGnTexsV7wzdZB1Y/qcLsZ0oHx6ePMCxpjir
nVQkDnVsnpATuTncQ/434xQPeH4rVqLSYFFXiDtMzyRnNnchu8gH60j3sB7kmWGE
FbthOiFV3zFDZ3OPa+kEg74ti5Q5ic9A1QT3a8nGjG42D116m1eGNnYsdTVHUO2a
hH43g7Uhog==
-----END CERTIFICATE-----
