Certificate:
    Data:
        Version: 3 (0x2)
        Serial Number: 7760573232607207428 (0x6bb3183cdef52004)
        Signature Algorithm: sha256WithRSAEncryption
        Issuer: C=UA, ST=Kharkiv Oblast', L=Kharkiv, O=Internet Systems Consortium, CN=ca.test.example.com
        Validity
            Not Before: Feb  8 17:58:15 2022 GMT
            Not After : Feb  1 17:58:15 2052 GMT
        Subject: CN=srv03.crt01.example.com
        Subject Public Key Info:
            Public Key Algorithm: id-ecPublicKey
                Public-Key: (384 bit)
                pub:
                    04:45:db:b9:1b:37:65:bf:b1:a1:8a:5a:39:00:8d:
                    4a:15:3b:43:9a:b8:2f:ff:a8:7d:99:83:a8:9c:dc:
                    b6:c2:aa:9f:f8:51:a1:0e:2e:97:0f:90:13:22:4c:
                    8b:f1:ff:3c:6b:eb:91:29:7d:4c:df:7c:05:dd:ad:
                    ea:4a:4c:ad:0a:d6:6f:8e:51:b0:88:58:42:88:2c:
                    16:d4:47:1d:b8:8f:b3:4e:0d:12:df:4c:14:f6:27:
                    20:3f:94:9a:23:81:48
                ASN1 OID: secp384r1
                NIST CURVE: P-384
        X509v3 extensions:
            X509v3 Subject Alternative Name:
                DNS:srv03.crt01.example.com, IP Address:10.53.0.3, IP Address:FD92:7065:B8E:FFFF:0:0:0:3
    Signature Algorithm: sha256WithRSAEncryption
         8f:96:88:82:94:76:8e:97:b6:75:8b:e9:2b:4f:f3:8f:14:5c:
         50:00:ca:67:96:9e:2e:bd:53:25:25:40:6d:c5:56:e6:1a:f6:
         cb:fb:58:fc:b3:56:9d:fc:0b:e2:8e:99:7e:e8:e6:ad:b6:e7:
         e6:3e:8a:59:ef:3e:76:a4:ed:7b:58:fd:a3:4b:aa:4e:11:e1:
         57:bf:b1:23:a5:a1:00:f8:95:07:c8:7d:ee:ac:a7:c8:24:ee:
         cf:e8:c5:a4:9f:96:27:c9:47:c1:7d:11:de:66:d0:6d:d1:8d:
         e7:8f:a0:0f:46:d9:2e:70:f3:9f:ac:6a:b0:3f:5a:dc:70:d4:
         b9:a5:f3:ff:5c:21:50:5d:c2:a2:46:26:25:2a:2f:8a:aa:7a:
         fd:76:31:5f:e0:25:a3:ee:df:36:f0:ab:05:a1:5d:0d:3c:6b:
         2c:1d:d5:c5:73:9c:a0:57:1f:c4:26:e6:dc:a1:7c:25:08:21:
         61:28:e2:b3:f5:51:83:20:73:14:19:8f:47:79:69:bc:2b:22:
         f2:17:62:1d:83:f7:4f:a9:c4:51:68:e0:a9:d7:9f:17:6a:d2:
         fd:f7:04:ce:a4:f5:8e:eb:31:b4:bf:c6:2d:da:0c:70:6e:0c:
         a5:75:21:54:3c:f6:3d:36:b8:8a:d8:b6:7b:77:7e:54:1d:9f:
         91:8f:02:a6:d1:2c:a7:30:d1:cc:e6:d9:6b:76:80:15:4b:ba:
         fd:55:20:cc:b2:99:85:57:60:11:97:c5:e7:28:50:a6:17:af:
         d2:bd:1b:7e:06:48:7f:63:dc:70:f8:3f:22:9f:41:a1:66:f5:
         a7:81:99:cb:07:0e:8a:9a:bb:12:f6:c0:fe:59:0c:00:37:15:
         b2:9d:f0:f9:93:d1:1a:b6:f8:0a:6b:bd:9e:92:32:45:f5:a2:
         44:f0:45:8d:1a:d0:10:b2:db:98:c4:c7:5e:c1:e8:f3:94:33:
         6c:06:f5:1a:cc:51:23:72:ae:37:2f:57:d4:f8:ac:1f:25:b4:
         d3:bf:99:9b:ac:fc
-----BEGIN CERTIFICATE-----
MIIDMzCCAZugAwIBAgIIa7MYPN71IAQwDQYJKoZIhvcNAQELBQAwfTELMAkGA1UE
BhMCVUExGDAWBgNVBAgMD0toYXJraXYgT2JsYXN0JzEQMA4GA1UEBwwHS2hhcmtp
djEkMCIGA1UECgwbSW50ZXJuZXQgU3lzdGVtcyBDb25zb3J0aXVtMRwwGgYDVQQD
DBNjYS50ZXN0LmV4YW1wbGUuY29tMCAXDTIyMDIwODE3NTgxNVoYDzIwNTIwMjAx
MTc1ODE1WjAiMSAwHgYDVQQDDBdzcnYwMy5jcnQwMS5leGFtcGxlLmNvbTB2MBAG
ByqGSM49AgEGBSuBBAAiA2IABEXbuRs3Zb+xoYpaOQCNShU7Q5q4L/+ofZmDqJzc
tsKqn/hRoQ4ulw+QEyJMi/H/PGvrkSl9TN98Bd2t6kpMrQrWb45RsIhYQogsFtRH
HbiPs04NEt9MFPYnID+UmiOBSKM+MDwwOgYDVR0RBDMwMYIXc3J2MDMuY3J0MDEu
ZXhhbXBsZS5jb22HBAo1AAOHEP2ScGULjv//AAAAAAAAAAMwDQYJKoZIhvcNAQEL
BQADggGBAI+WiIKUdo6XtnWL6StP848UXFAAymeWni69UyUlQG3FVuYa9sv7WPyz
Vp38C+KOmX7o5q225+Y+ilnvPnak7XtY/aNLqk4R4Ve/sSOloQD4lQfIfe6sp8gk
7s/oxaSflifJR8F9Ed5m0G3RjeePoA9G2S5w85+sarA/Wtxw1Lml8/9cIVBdwqJG
JiUqL4qqev12MV/gJaPu3zbwqwWhXQ08aywd1cVznKBXH8Qm5tyhfCUIIWEo4rP1
UYMgcxQZj0d5abwrIvIXYh2D90+pxFFo4KnXnxdq0v33BM6k9Y7rMbS/xi3aDHBu
DKV1IVQ89j02uIrYtnt3flQdn5GPAqbRLKcw0czm2Wt2gBVLuv1VIMyymYVXYBGX
xecoUKYXr9K9G34GSH9j3HD4PyKfQaFm9aeBmcsHDoqauxL2wP5ZDAA3FbKd8PmT
0Rq2+AprvZ6SMkX1okTwRY0a0BCy25jEx17B6POUM2wG9RrMUSNyrjcvV9T4rB8l
tNO/mZus/A==
-----END CERTIFICATE-----
